
SW Tutorial 2021.elf:     file format elf32-littlearm

Sections:
Idx Name          Size      VMA       LMA       File off  Algn
  0 .isr_vector   00000188  08000000  08000000  00010000  2**0
                  CONTENTS, ALLOC, LOAD, READONLY, DATA
  1 .text         00002db0  08000188  08000188  00010188  2**2
                  CONTENTS, ALLOC, LOAD, READONLY, CODE
  2 .rodata       00000e94  08002f38  08002f38  00012f38  2**0
                  CONTENTS, ALLOC, LOAD, READONLY, DATA
  3 .ARM.extab    00000000  08003dcc  08003dcc  00020010  2**0
                  CONTENTS
  4 .ARM          00000008  08003dcc  08003dcc  00013dcc  2**2
                  CONTENTS, ALLOC, LOAD, READONLY, DATA
  5 .preinit_array 00000000  08003dd4  08003dd4  00020010  2**0
                  CONTENTS, ALLOC, LOAD, DATA
  6 .init_array   00000004  08003dd4  08003dd4  00013dd4  2**2
                  CONTENTS, ALLOC, LOAD, DATA
  7 .fini_array   00000004  08003dd8  08003dd8  00013dd8  2**2
                  CONTENTS, ALLOC, LOAD, DATA
  8 .data         00000010  20000000  08003ddc  00020000  2**2
                  CONTENTS, ALLOC, LOAD, DATA
  9 .ccmram       00000000  10000000  10000000  00020010  2**0
                  CONTENTS
 10 .bss          00005854  20000010  20000010  00020010  2**2
                  ALLOC
 11 ._user_heap_stack 00000604  20005864  20005864  00020010  2**0
                  ALLOC
 12 .ARM.attributes 00000030  00000000  00000000  00020010  2**0
                  CONTENTS, READONLY
 13 .comment      00000079  00000000  00000000  00020040  2**0
                  CONTENTS, READONLY
 14 .debug_frame  000000ac  00000000  00000000  000200bc  2**2
                  CONTENTS, READONLY, DEBUGGING

Disassembly of section .text:

08000188 <__do_global_dtors_aux>:
 8000188:	b510      	push	{r4, lr}
 800018a:	4c05      	ldr	r4, [pc, #20]	; (80001a0 <__do_global_dtors_aux+0x18>)
 800018c:	7823      	ldrb	r3, [r4, #0]
 800018e:	b933      	cbnz	r3, 800019e <__do_global_dtors_aux+0x16>
 8000190:	4b04      	ldr	r3, [pc, #16]	; (80001a4 <__do_global_dtors_aux+0x1c>)
 8000192:	b113      	cbz	r3, 800019a <__do_global_dtors_aux+0x12>
 8000194:	4804      	ldr	r0, [pc, #16]	; (80001a8 <__do_global_dtors_aux+0x20>)
 8000196:	f3af 8000 	nop.w
 800019a:	2301      	movs	r3, #1
 800019c:	7023      	strb	r3, [r4, #0]
 800019e:	bd10      	pop	{r4, pc}
 80001a0:	20000010 	.word	0x20000010
 80001a4:	00000000 	.word	0x00000000
 80001a8:	08002f20 	.word	0x08002f20

080001ac <frame_dummy>:
 80001ac:	b508      	push	{r3, lr}
 80001ae:	4b03      	ldr	r3, [pc, #12]	; (80001bc <frame_dummy+0x10>)
 80001b0:	b11b      	cbz	r3, 80001ba <frame_dummy+0xe>
 80001b2:	4903      	ldr	r1, [pc, #12]	; (80001c0 <frame_dummy+0x14>)
 80001b4:	4803      	ldr	r0, [pc, #12]	; (80001c4 <frame_dummy+0x18>)
 80001b6:	f3af 8000 	nop.w
 80001ba:	bd08      	pop	{r3, pc}
 80001bc:	00000000 	.word	0x00000000
 80001c0:	20000014 	.word	0x20000014
 80001c4:	08002f20 	.word	0x08002f20

080001c8 <__aeabi_uldivmod>:
 80001c8:	b953      	cbnz	r3, 80001e0 <__aeabi_uldivmod+0x18>
 80001ca:	b94a      	cbnz	r2, 80001e0 <__aeabi_uldivmod+0x18>
 80001cc:	2900      	cmp	r1, #0
 80001ce:	bf08      	it	eq
 80001d0:	2800      	cmpeq	r0, #0
 80001d2:	bf1c      	itt	ne
 80001d4:	f04f 31ff 	movne.w	r1, #4294967295
 80001d8:	f04f 30ff 	movne.w	r0, #4294967295
 80001dc:	f000 b96e 	b.w	80004bc <__aeabi_idiv0>
 80001e0:	f1ad 0c08 	sub.w	ip, sp, #8
 80001e4:	e96d ce04 	strd	ip, lr, [sp, #-16]!
 80001e8:	f000 f806 	bl	80001f8 <__udivmoddi4>
 80001ec:	f8dd e004 	ldr.w	lr, [sp, #4]
 80001f0:	e9dd 2302 	ldrd	r2, r3, [sp, #8]
 80001f4:	b004      	add	sp, #16
 80001f6:	4770      	bx	lr

080001f8 <__udivmoddi4>:
 80001f8:	e92d 47f0 	stmdb	sp!, {r4, r5, r6, r7, r8, r9, sl, lr}
 80001fc:	9d08      	ldr	r5, [sp, #32]
 80001fe:	4604      	mov	r4, r0
 8000200:	468c      	mov	ip, r1
 8000202:	2b00      	cmp	r3, #0
 8000204:	f040 8083 	bne.w	800030e <__udivmoddi4+0x116>
 8000208:	428a      	cmp	r2, r1
 800020a:	4617      	mov	r7, r2
 800020c:	d947      	bls.n	800029e <__udivmoddi4+0xa6>
 800020e:	fab2 f282 	clz	r2, r2
 8000212:	b142      	cbz	r2, 8000226 <__udivmoddi4+0x2e>
 8000214:	f1c2 0020 	rsb	r0, r2, #32
 8000218:	fa24 f000 	lsr.w	r0, r4, r0
 800021c:	4091      	lsls	r1, r2
 800021e:	4097      	lsls	r7, r2
 8000220:	ea40 0c01 	orr.w	ip, r0, r1
 8000224:	4094      	lsls	r4, r2
 8000226:	ea4f 4817 	mov.w	r8, r7, lsr #16
 800022a:	0c23      	lsrs	r3, r4, #16
 800022c:	fbbc f6f8 	udiv	r6, ip, r8
 8000230:	fa1f fe87 	uxth.w	lr, r7
 8000234:	fb08 c116 	mls	r1, r8, r6, ip
 8000238:	ea43 4301 	orr.w	r3, r3, r1, lsl #16
 800023c:	fb06 f10e 	mul.w	r1, r6, lr
 8000240:	4299      	cmp	r1, r3
 8000242:	d909      	bls.n	8000258 <__udivmoddi4+0x60>
 8000244:	18fb      	adds	r3, r7, r3
 8000246:	f106 30ff 	add.w	r0, r6, #4294967295
 800024a:	f080 8119 	bcs.w	8000480 <__udivmoddi4+0x288>
 800024e:	4299      	cmp	r1, r3
 8000250:	f240 8116 	bls.w	8000480 <__udivmoddi4+0x288>
 8000254:	3e02      	subs	r6, #2
 8000256:	443b      	add	r3, r7
 8000258:	1a5b      	subs	r3, r3, r1
 800025a:	b2a4      	uxth	r4, r4
 800025c:	fbb3 f0f8 	udiv	r0, r3, r8
 8000260:	fb08 3310 	mls	r3, r8, r0, r3
 8000264:	ea44 4403 	orr.w	r4, r4, r3, lsl #16
 8000268:	fb00 fe0e 	mul.w	lr, r0, lr
 800026c:	45a6      	cmp	lr, r4
 800026e:	d909      	bls.n	8000284 <__udivmoddi4+0x8c>
 8000270:	193c      	adds	r4, r7, r4
 8000272:	f100 33ff 	add.w	r3, r0, #4294967295
 8000276:	f080 8105 	bcs.w	8000484 <__udivmoddi4+0x28c>
 800027a:	45a6      	cmp	lr, r4
 800027c:	f240 8102 	bls.w	8000484 <__udivmoddi4+0x28c>
 8000280:	3802      	subs	r0, #2
 8000282:	443c      	add	r4, r7
 8000284:	ea40 4006 	orr.w	r0, r0, r6, lsl #16
 8000288:	eba4 040e 	sub.w	r4, r4, lr
 800028c:	2600      	movs	r6, #0
 800028e:	b11d      	cbz	r5, 8000298 <__udivmoddi4+0xa0>
 8000290:	40d4      	lsrs	r4, r2
 8000292:	2300      	movs	r3, #0
 8000294:	e9c5 4300 	strd	r4, r3, [r5]
 8000298:	4631      	mov	r1, r6
 800029a:	e8bd 87f0 	ldmia.w	sp!, {r4, r5, r6, r7, r8, r9, sl, pc}
 800029e:	b902      	cbnz	r2, 80002a2 <__udivmoddi4+0xaa>
 80002a0:	deff      	udf	#255	; 0xff
 80002a2:	fab2 f282 	clz	r2, r2
 80002a6:	2a00      	cmp	r2, #0
 80002a8:	d150      	bne.n	800034c <__udivmoddi4+0x154>
 80002aa:	1bcb      	subs	r3, r1, r7
 80002ac:	ea4f 4e17 	mov.w	lr, r7, lsr #16
 80002b0:	fa1f f887 	uxth.w	r8, r7
 80002b4:	2601      	movs	r6, #1
 80002b6:	fbb3 fcfe 	udiv	ip, r3, lr
 80002ba:	0c21      	lsrs	r1, r4, #16
 80002bc:	fb0e 331c 	mls	r3, lr, ip, r3
 80002c0:	ea41 4103 	orr.w	r1, r1, r3, lsl #16
 80002c4:	fb08 f30c 	mul.w	r3, r8, ip
 80002c8:	428b      	cmp	r3, r1
 80002ca:	d907      	bls.n	80002dc <__udivmoddi4+0xe4>
 80002cc:	1879      	adds	r1, r7, r1
 80002ce:	f10c 30ff 	add.w	r0, ip, #4294967295
 80002d2:	d202      	bcs.n	80002da <__udivmoddi4+0xe2>
 80002d4:	428b      	cmp	r3, r1
 80002d6:	f200 80e9 	bhi.w	80004ac <__udivmoddi4+0x2b4>
 80002da:	4684      	mov	ip, r0
 80002dc:	1ac9      	subs	r1, r1, r3
 80002de:	b2a3      	uxth	r3, r4
 80002e0:	fbb1 f0fe 	udiv	r0, r1, lr
 80002e4:	fb0e 1110 	mls	r1, lr, r0, r1
 80002e8:	ea43 4401 	orr.w	r4, r3, r1, lsl #16
 80002ec:	fb08 f800 	mul.w	r8, r8, r0
 80002f0:	45a0      	cmp	r8, r4
 80002f2:	d907      	bls.n	8000304 <__udivmoddi4+0x10c>
 80002f4:	193c      	adds	r4, r7, r4
 80002f6:	f100 33ff 	add.w	r3, r0, #4294967295
 80002fa:	d202      	bcs.n	8000302 <__udivmoddi4+0x10a>
 80002fc:	45a0      	cmp	r8, r4
 80002fe:	f200 80d9 	bhi.w	80004b4 <__udivmoddi4+0x2bc>
 8000302:	4618      	mov	r0, r3
 8000304:	eba4 0408 	sub.w	r4, r4, r8
 8000308:	ea40 400c 	orr.w	r0, r0, ip, lsl #16
 800030c:	e7bf      	b.n	800028e <__udivmoddi4+0x96>
 800030e:	428b      	cmp	r3, r1
 8000310:	d909      	bls.n	8000326 <__udivmoddi4+0x12e>
 8000312:	2d00      	cmp	r5, #0
 8000314:	f000 80b1 	beq.w	800047a <__udivmoddi4+0x282>
 8000318:	2600      	movs	r6, #0
 800031a:	e9c5 0100 	strd	r0, r1, [r5]
 800031e:	4630      	mov	r0, r6
 8000320:	4631      	mov	r1, r6
 8000322:	e8bd 87f0 	ldmia.w	sp!, {r4, r5, r6, r7, r8, r9, sl, pc}
 8000326:	fab3 f683 	clz	r6, r3
 800032a:	2e00      	cmp	r6, #0
 800032c:	d14a      	bne.n	80003c4 <__udivmoddi4+0x1cc>
 800032e:	428b      	cmp	r3, r1
 8000330:	d302      	bcc.n	8000338 <__udivmoddi4+0x140>
 8000332:	4282      	cmp	r2, r0
 8000334:	f200 80b8 	bhi.w	80004a8 <__udivmoddi4+0x2b0>
 8000338:	1a84      	subs	r4, r0, r2
 800033a:	eb61 0103 	sbc.w	r1, r1, r3
 800033e:	2001      	movs	r0, #1
 8000340:	468c      	mov	ip, r1
 8000342:	2d00      	cmp	r5, #0
 8000344:	d0a8      	beq.n	8000298 <__udivmoddi4+0xa0>
 8000346:	e9c5 4c00 	strd	r4, ip, [r5]
 800034a:	e7a5      	b.n	8000298 <__udivmoddi4+0xa0>
 800034c:	f1c2 0320 	rsb	r3, r2, #32
 8000350:	fa20 f603 	lsr.w	r6, r0, r3
 8000354:	4097      	lsls	r7, r2
 8000356:	fa01 f002 	lsl.w	r0, r1, r2
 800035a:	ea4f 4e17 	mov.w	lr, r7, lsr #16
 800035e:	40d9      	lsrs	r1, r3
 8000360:	4330      	orrs	r0, r6
 8000362:	0c03      	lsrs	r3, r0, #16
 8000364:	fbb1 f6fe 	udiv	r6, r1, lr
 8000368:	fa1f f887 	uxth.w	r8, r7
 800036c:	fb0e 1116 	mls	r1, lr, r6, r1
 8000370:	ea43 4301 	orr.w	r3, r3, r1, lsl #16
 8000374:	fb06 f108 	mul.w	r1, r6, r8
 8000378:	4299      	cmp	r1, r3
 800037a:	fa04 f402 	lsl.w	r4, r4, r2
 800037e:	d909      	bls.n	8000394 <__udivmoddi4+0x19c>
 8000380:	18fb      	adds	r3, r7, r3
 8000382:	f106 3cff 	add.w	ip, r6, #4294967295
 8000386:	f080 808d 	bcs.w	80004a4 <__udivmoddi4+0x2ac>
 800038a:	4299      	cmp	r1, r3
 800038c:	f240 808a 	bls.w	80004a4 <__udivmoddi4+0x2ac>
 8000390:	3e02      	subs	r6, #2
 8000392:	443b      	add	r3, r7
 8000394:	1a5b      	subs	r3, r3, r1
 8000396:	b281      	uxth	r1, r0
 8000398:	fbb3 f0fe 	udiv	r0, r3, lr
 800039c:	fb0e 3310 	mls	r3, lr, r0, r3
 80003a0:	ea41 4103 	orr.w	r1, r1, r3, lsl #16
 80003a4:	fb00 f308 	mul.w	r3, r0, r8
 80003a8:	428b      	cmp	r3, r1
 80003aa:	d907      	bls.n	80003bc <__udivmoddi4+0x1c4>
 80003ac:	1879      	adds	r1, r7, r1
 80003ae:	f100 3cff 	add.w	ip, r0, #4294967295
 80003b2:	d273      	bcs.n	800049c <__udivmoddi4+0x2a4>
 80003b4:	428b      	cmp	r3, r1
 80003b6:	d971      	bls.n	800049c <__udivmoddi4+0x2a4>
 80003b8:	3802      	subs	r0, #2
 80003ba:	4439      	add	r1, r7
 80003bc:	1acb      	subs	r3, r1, r3
 80003be:	ea40 4606 	orr.w	r6, r0, r6, lsl #16
 80003c2:	e778      	b.n	80002b6 <__udivmoddi4+0xbe>
 80003c4:	f1c6 0c20 	rsb	ip, r6, #32
 80003c8:	fa03 f406 	lsl.w	r4, r3, r6
 80003cc:	fa22 f30c 	lsr.w	r3, r2, ip
 80003d0:	431c      	orrs	r4, r3
 80003d2:	fa20 f70c 	lsr.w	r7, r0, ip
 80003d6:	fa01 f306 	lsl.w	r3, r1, r6
 80003da:	ea4f 4e14 	mov.w	lr, r4, lsr #16
 80003de:	fa21 f10c 	lsr.w	r1, r1, ip
 80003e2:	431f      	orrs	r7, r3
 80003e4:	0c3b      	lsrs	r3, r7, #16
 80003e6:	fbb1 f9fe 	udiv	r9, r1, lr
 80003ea:	fa1f f884 	uxth.w	r8, r4
 80003ee:	fb0e 1119 	mls	r1, lr, r9, r1
 80003f2:	ea43 4101 	orr.w	r1, r3, r1, lsl #16
 80003f6:	fb09 fa08 	mul.w	sl, r9, r8
 80003fa:	458a      	cmp	sl, r1
 80003fc:	fa02 f206 	lsl.w	r2, r2, r6
 8000400:	fa00 f306 	lsl.w	r3, r0, r6
 8000404:	d908      	bls.n	8000418 <__udivmoddi4+0x220>
 8000406:	1861      	adds	r1, r4, r1
 8000408:	f109 30ff 	add.w	r0, r9, #4294967295
 800040c:	d248      	bcs.n	80004a0 <__udivmoddi4+0x2a8>
 800040e:	458a      	cmp	sl, r1
 8000410:	d946      	bls.n	80004a0 <__udivmoddi4+0x2a8>
 8000412:	f1a9 0902 	sub.w	r9, r9, #2
 8000416:	4421      	add	r1, r4
 8000418:	eba1 010a 	sub.w	r1, r1, sl
 800041c:	b2bf      	uxth	r7, r7
 800041e:	fbb1 f0fe 	udiv	r0, r1, lr
 8000422:	fb0e 1110 	mls	r1, lr, r0, r1
 8000426:	ea47 4701 	orr.w	r7, r7, r1, lsl #16
 800042a:	fb00 f808 	mul.w	r8, r0, r8
 800042e:	45b8      	cmp	r8, r7
 8000430:	d907      	bls.n	8000442 <__udivmoddi4+0x24a>
 8000432:	19e7      	adds	r7, r4, r7
 8000434:	f100 31ff 	add.w	r1, r0, #4294967295
 8000438:	d22e      	bcs.n	8000498 <__udivmoddi4+0x2a0>
 800043a:	45b8      	cmp	r8, r7
 800043c:	d92c      	bls.n	8000498 <__udivmoddi4+0x2a0>
 800043e:	3802      	subs	r0, #2
 8000440:	4427      	add	r7, r4
 8000442:	ea40 4009 	orr.w	r0, r0, r9, lsl #16
 8000446:	eba7 0708 	sub.w	r7, r7, r8
 800044a:	fba0 8902 	umull	r8, r9, r0, r2
 800044e:	454f      	cmp	r7, r9
 8000450:	46c6      	mov	lr, r8
 8000452:	4649      	mov	r1, r9
 8000454:	d31a      	bcc.n	800048c <__udivmoddi4+0x294>
 8000456:	d017      	beq.n	8000488 <__udivmoddi4+0x290>
 8000458:	b15d      	cbz	r5, 8000472 <__udivmoddi4+0x27a>
 800045a:	ebb3 020e 	subs.w	r2, r3, lr
 800045e:	eb67 0701 	sbc.w	r7, r7, r1
 8000462:	fa07 fc0c 	lsl.w	ip, r7, ip
 8000466:	40f2      	lsrs	r2, r6
 8000468:	ea4c 0202 	orr.w	r2, ip, r2
 800046c:	40f7      	lsrs	r7, r6
 800046e:	e9c5 2700 	strd	r2, r7, [r5]
 8000472:	2600      	movs	r6, #0
 8000474:	4631      	mov	r1, r6
 8000476:	e8bd 87f0 	ldmia.w	sp!, {r4, r5, r6, r7, r8, r9, sl, pc}
 800047a:	462e      	mov	r6, r5
 800047c:	4628      	mov	r0, r5
 800047e:	e70b      	b.n	8000298 <__udivmoddi4+0xa0>
 8000480:	4606      	mov	r6, r0
 8000482:	e6e9      	b.n	8000258 <__udivmoddi4+0x60>
 8000484:	4618      	mov	r0, r3
 8000486:	e6fd      	b.n	8000284 <__udivmoddi4+0x8c>
 8000488:	4543      	cmp	r3, r8
 800048a:	d2e5      	bcs.n	8000458 <__udivmoddi4+0x260>
 800048c:	ebb8 0e02 	subs.w	lr, r8, r2
 8000490:	eb69 0104 	sbc.w	r1, r9, r4
 8000494:	3801      	subs	r0, #1
 8000496:	e7df      	b.n	8000458 <__udivmoddi4+0x260>
 8000498:	4608      	mov	r0, r1
 800049a:	e7d2      	b.n	8000442 <__udivmoddi4+0x24a>
 800049c:	4660      	mov	r0, ip
 800049e:	e78d      	b.n	80003bc <__udivmoddi4+0x1c4>
 80004a0:	4681      	mov	r9, r0
 80004a2:	e7b9      	b.n	8000418 <__udivmoddi4+0x220>
 80004a4:	4666      	mov	r6, ip
 80004a6:	e775      	b.n	8000394 <__udivmoddi4+0x19c>
 80004a8:	4630      	mov	r0, r6
 80004aa:	e74a      	b.n	8000342 <__udivmoddi4+0x14a>
 80004ac:	f1ac 0c02 	sub.w	ip, ip, #2
 80004b0:	4439      	add	r1, r7
 80004b2:	e713      	b.n	80002dc <__udivmoddi4+0xe4>
 80004b4:	3802      	subs	r0, #2
 80004b6:	443c      	add	r4, r7
 80004b8:	e724      	b.n	8000304 <__udivmoddi4+0x10c>
 80004ba:	bf00      	nop

080004bc <__aeabi_idiv0>:
 80004bc:	4770      	bx	lr
 80004be:	bf00      	nop

080004c0 <MX_CAN1_Init>:
 80004c0:	480c      	ldr	r0, [pc, #48]	; (80004f4 <MX_CAN1_Init+0x34>)
 80004c2:	4a0d      	ldr	r2, [pc, #52]	; (80004f8 <MX_CAN1_Init+0x38>)
 80004c4:	b508      	push	{r3, lr}
 80004c6:	2303      	movs	r3, #3
 80004c8:	e9c0 2300 	strd	r2, r3, [r0]
 80004cc:	2300      	movs	r3, #0
 80004ce:	f44f 2110 	mov.w	r1, #589824	; 0x90000
 80004d2:	f44f 1200 	mov.w	r2, #2097152	; 0x200000
 80004d6:	6183      	str	r3, [r0, #24]
 80004d8:	8383      	strh	r3, [r0, #28]
 80004da:	e9c0 3302 	strd	r3, r3, [r0, #8]
 80004de:	e9c0 1204 	strd	r1, r2, [r0, #16]
 80004e2:	f001 f819 	bl	8001518 <HAL_CAN_Init>
 80004e6:	b118      	cbz	r0, 80004f0 <MX_CAN1_Init+0x30>
 80004e8:	e8bd 4008 	ldmia.w	sp!, {r3, lr}
 80004ec:	f000 bd8c 	b.w	8001008 <Error_Handler>
 80004f0:	bd08      	pop	{r3, pc}
 80004f2:	bf00      	nop
 80004f4:	200056ac 	.word	0x200056ac
 80004f8:	40006400 	.word	0x40006400

080004fc <MX_CAN2_Init>:
 80004fc:	480c      	ldr	r0, [pc, #48]	; (8000530 <MX_CAN2_Init+0x34>)
 80004fe:	4a0d      	ldr	r2, [pc, #52]	; (8000534 <MX_CAN2_Init+0x38>)
 8000500:	b508      	push	{r3, lr}
 8000502:	2303      	movs	r3, #3
 8000504:	e9c0 2300 	strd	r2, r3, [r0]
 8000508:	2300      	movs	r3, #0
 800050a:	f44f 2110 	mov.w	r1, #589824	; 0x90000
 800050e:	f44f 1200 	mov.w	r2, #2097152	; 0x200000
 8000512:	6183      	str	r3, [r0, #24]
 8000514:	8383      	strh	r3, [r0, #28]
 8000516:	e9c0 3302 	strd	r3, r3, [r0, #8]
 800051a:	e9c0 1204 	strd	r1, r2, [r0, #16]
 800051e:	f000 fffb 	bl	8001518 <HAL_CAN_Init>
 8000522:	b118      	cbz	r0, 800052c <MX_CAN2_Init+0x30>
 8000524:	e8bd 4008 	ldmia.w	sp!, {r3, lr}
 8000528:	f000 bd6e 	b.w	8001008 <Error_Handler>
 800052c:	bd08      	pop	{r3, pc}
 800052e:	bf00      	nop
 8000530:	20005684 	.word	0x20005684
 8000534:	40006800 	.word	0x40006800

08000538 <HAL_CAN_MspInit>:
 8000538:	b510      	push	{r4, lr}
 800053a:	2214      	movs	r2, #20
 800053c:	b08a      	sub	sp, #40	; 0x28
 800053e:	4604      	mov	r4, r0
 8000540:	2100      	movs	r1, #0
 8000542:	eb0d 0002 	add.w	r0, sp, r2
 8000546:	f002 fce3 	bl	8002f10 <memset>
 800054a:	6823      	ldr	r3, [r4, #0]
 800054c:	4a34      	ldr	r2, [pc, #208]	; (8000620 <HAL_CAN_MspInit+0xe8>)
 800054e:	4293      	cmp	r3, r2
 8000550:	d12d      	bne.n	80005ae <HAL_CAN_MspInit+0x76>
 8000552:	4a34      	ldr	r2, [pc, #208]	; (8000624 <HAL_CAN_MspInit+0xec>)
 8000554:	6813      	ldr	r3, [r2, #0]
 8000556:	3301      	adds	r3, #1
 8000558:	2b01      	cmp	r3, #1
 800055a:	6013      	str	r3, [r2, #0]
 800055c:	d10b      	bne.n	8000576 <HAL_CAN_MspInit+0x3e>
 800055e:	2300      	movs	r3, #0
 8000560:	9300      	str	r3, [sp, #0]
 8000562:	4b31      	ldr	r3, [pc, #196]	; (8000628 <HAL_CAN_MspInit+0xf0>)
 8000564:	6c1a      	ldr	r2, [r3, #64]	; 0x40
 8000566:	f042 7200 	orr.w	r2, r2, #33554432	; 0x2000000
 800056a:	641a      	str	r2, [r3, #64]	; 0x40
 800056c:	6c1b      	ldr	r3, [r3, #64]	; 0x40
 800056e:	f003 7300 	and.w	r3, r3, #33554432	; 0x2000000
 8000572:	9300      	str	r3, [sp, #0]
 8000574:	9b00      	ldr	r3, [sp, #0]
 8000576:	4b2c      	ldr	r3, [pc, #176]	; (8000628 <HAL_CAN_MspInit+0xf0>)
 8000578:	2100      	movs	r1, #0
 800057a:	9101      	str	r1, [sp, #4]
 800057c:	6b1a      	ldr	r2, [r3, #48]	; 0x30
 800057e:	f042 0201 	orr.w	r2, r2, #1
 8000582:	631a      	str	r2, [r3, #48]	; 0x30
 8000584:	6b1b      	ldr	r3, [r3, #48]	; 0x30
 8000586:	9107      	str	r1, [sp, #28]
 8000588:	f003 0301 	and.w	r3, r3, #1
 800058c:	9301      	str	r3, [sp, #4]
 800058e:	f44f 50c0 	mov.w	r0, #6144	; 0x1800
 8000592:	9b01      	ldr	r3, [sp, #4]
 8000594:	2302      	movs	r3, #2
 8000596:	e9cd 0305 	strd	r0, r3, [sp, #20]
 800059a:	2403      	movs	r4, #3
 800059c:	2309      	movs	r3, #9
 800059e:	e9cd 4308 	strd	r4, r3, [sp, #32]
 80005a2:	4822      	ldr	r0, [pc, #136]	; (800062c <HAL_CAN_MspInit+0xf4>)
 80005a4:	a905      	add	r1, sp, #20
 80005a6:	f001 fa3b 	bl	8001a20 <HAL_GPIO_Init>
 80005aa:	b00a      	add	sp, #40	; 0x28
 80005ac:	bd10      	pop	{r4, pc}
 80005ae:	4a20      	ldr	r2, [pc, #128]	; (8000630 <HAL_CAN_MspInit+0xf8>)
 80005b0:	4293      	cmp	r3, r2
 80005b2:	d1fa      	bne.n	80005aa <HAL_CAN_MspInit+0x72>
 80005b4:	4b1c      	ldr	r3, [pc, #112]	; (8000628 <HAL_CAN_MspInit+0xf0>)
 80005b6:	481b      	ldr	r0, [pc, #108]	; (8000624 <HAL_CAN_MspInit+0xec>)
 80005b8:	2100      	movs	r1, #0
 80005ba:	9102      	str	r1, [sp, #8]
 80005bc:	6c1a      	ldr	r2, [r3, #64]	; 0x40
 80005be:	f042 6280 	orr.w	r2, r2, #67108864	; 0x4000000
 80005c2:	641a      	str	r2, [r3, #64]	; 0x40
 80005c4:	6c1a      	ldr	r2, [r3, #64]	; 0x40
 80005c6:	f002 6280 	and.w	r2, r2, #67108864	; 0x4000000
 80005ca:	9202      	str	r2, [sp, #8]
 80005cc:	9a02      	ldr	r2, [sp, #8]
 80005ce:	6802      	ldr	r2, [r0, #0]
 80005d0:	3201      	adds	r2, #1
 80005d2:	2a01      	cmp	r2, #1
 80005d4:	6002      	str	r2, [r0, #0]
 80005d6:	d109      	bne.n	80005ec <HAL_CAN_MspInit+0xb4>
 80005d8:	9103      	str	r1, [sp, #12]
 80005da:	6c1a      	ldr	r2, [r3, #64]	; 0x40
 80005dc:	f042 7200 	orr.w	r2, r2, #33554432	; 0x2000000
 80005e0:	641a      	str	r2, [r3, #64]	; 0x40
 80005e2:	6c1b      	ldr	r3, [r3, #64]	; 0x40
 80005e4:	f003 7300 	and.w	r3, r3, #33554432	; 0x2000000
 80005e8:	9303      	str	r3, [sp, #12]
 80005ea:	9b03      	ldr	r3, [sp, #12]
 80005ec:	4b0e      	ldr	r3, [pc, #56]	; (8000628 <HAL_CAN_MspInit+0xf0>)
 80005ee:	4811      	ldr	r0, [pc, #68]	; (8000634 <HAL_CAN_MspInit+0xfc>)
 80005f0:	2100      	movs	r1, #0
 80005f2:	9104      	str	r1, [sp, #16]
 80005f4:	6b1a      	ldr	r2, [r3, #48]	; 0x30
 80005f6:	f042 0202 	orr.w	r2, r2, #2
 80005fa:	631a      	str	r2, [r3, #48]	; 0x30
 80005fc:	6b1b      	ldr	r3, [r3, #48]	; 0x30
 80005fe:	9107      	str	r1, [sp, #28]
 8000600:	f003 0302 	and.w	r3, r3, #2
 8000604:	9304      	str	r3, [sp, #16]
 8000606:	9b04      	ldr	r3, [sp, #16]
 8000608:	f44f 5240 	mov.w	r2, #12288	; 0x3000
 800060c:	2302      	movs	r3, #2
 800060e:	2103      	movs	r1, #3
 8000610:	e9cd 2305 	strd	r2, r3, [sp, #20]
 8000614:	2309      	movs	r3, #9
 8000616:	e9cd 1308 	strd	r1, r3, [sp, #32]
 800061a:	a905      	add	r1, sp, #20
 800061c:	e7c3      	b.n	80005a6 <HAL_CAN_MspInit+0x6e>
 800061e:	bf00      	nop
 8000620:	40006400 	.word	0x40006400
 8000624:	2000002c 	.word	0x2000002c
 8000628:	40023800 	.word	0x40023800
 800062c:	40020000 	.word	0x40020000
 8000630:	40006800 	.word	0x40006800
 8000634:	40020400 	.word	0x40020400

08000638 <MX_DMA_Init>:
 8000638:	b507      	push	{r0, r1, r2, lr}
 800063a:	4b0b      	ldr	r3, [pc, #44]	; (8000668 <MX_DMA_Init+0x30>)
 800063c:	2200      	movs	r2, #0
 800063e:	9201      	str	r2, [sp, #4]
 8000640:	6b19      	ldr	r1, [r3, #48]	; 0x30
 8000642:	f441 0180 	orr.w	r1, r1, #4194304	; 0x400000
 8000646:	6319      	str	r1, [r3, #48]	; 0x30
 8000648:	6b1b      	ldr	r3, [r3, #48]	; 0x30
 800064a:	f403 0380 	and.w	r3, r3, #4194304	; 0x400000
 800064e:	9301      	str	r3, [sp, #4]
 8000650:	4611      	mov	r1, r2
 8000652:	203b      	movs	r0, #59	; 0x3b
 8000654:	9b01      	ldr	r3, [sp, #4]
 8000656:	f000 ffed 	bl	8001634 <HAL_NVIC_SetPriority>
 800065a:	203b      	movs	r0, #59	; 0x3b
 800065c:	b003      	add	sp, #12
 800065e:	f85d eb04 	ldr.w	lr, [sp], #4
 8000662:	f001 b819 	b.w	8001698 <HAL_NVIC_EnableIRQ>
 8000666:	bf00      	nop
 8000668:	40023800 	.word	0x40023800

0800066c <MX_GPIO_Init>:
 800066c:	e92d 41f0 	stmdb	sp!, {r4, r5, r6, r7, r8, lr}
 8000670:	2214      	movs	r2, #20
 8000672:	b08a      	sub	sp, #40	; 0x28
 8000674:	eb0d 0002 	add.w	r0, sp, r2
 8000678:	2100      	movs	r1, #0
 800067a:	f002 fc49 	bl	8002f10 <memset>
 800067e:	2400      	movs	r4, #0
 8000680:	4b52      	ldr	r3, [pc, #328]	; (80007cc <MX_GPIO_Init+0x160>)
 8000682:	9400      	str	r4, [sp, #0]
 8000684:	6b1a      	ldr	r2, [r3, #48]	; 0x30
 8000686:	f8df 8154 	ldr.w	r8, [pc, #340]	; 80007dc <MX_GPIO_Init+0x170>
 800068a:	4f51      	ldr	r7, [pc, #324]	; (80007d0 <MX_GPIO_Init+0x164>)
 800068c:	4d51      	ldr	r5, [pc, #324]	; (80007d4 <MX_GPIO_Init+0x168>)
 800068e:	f042 0204 	orr.w	r2, r2, #4
 8000692:	631a      	str	r2, [r3, #48]	; 0x30
 8000694:	6b1a      	ldr	r2, [r3, #48]	; 0x30
 8000696:	f002 0204 	and.w	r2, r2, #4
 800069a:	9200      	str	r2, [sp, #0]
 800069c:	9a00      	ldr	r2, [sp, #0]
 800069e:	9401      	str	r4, [sp, #4]
 80006a0:	6b1a      	ldr	r2, [r3, #48]	; 0x30
 80006a2:	f042 0280 	orr.w	r2, r2, #128	; 0x80
 80006a6:	631a      	str	r2, [r3, #48]	; 0x30
 80006a8:	6b1a      	ldr	r2, [r3, #48]	; 0x30
 80006aa:	f002 0280 	and.w	r2, r2, #128	; 0x80
 80006ae:	9201      	str	r2, [sp, #4]
 80006b0:	9a01      	ldr	r2, [sp, #4]
 80006b2:	9402      	str	r4, [sp, #8]
 80006b4:	6b1a      	ldr	r2, [r3, #48]	; 0x30
 80006b6:	f042 0201 	orr.w	r2, r2, #1
 80006ba:	631a      	str	r2, [r3, #48]	; 0x30
 80006bc:	6b1a      	ldr	r2, [r3, #48]	; 0x30
 80006be:	f002 0201 	and.w	r2, r2, #1
 80006c2:	9202      	str	r2, [sp, #8]
 80006c4:	9a02      	ldr	r2, [sp, #8]
 80006c6:	9403      	str	r4, [sp, #12]
 80006c8:	6b1a      	ldr	r2, [r3, #48]	; 0x30
 80006ca:	f042 0202 	orr.w	r2, r2, #2
 80006ce:	631a      	str	r2, [r3, #48]	; 0x30
 80006d0:	6b1a      	ldr	r2, [r3, #48]	; 0x30
 80006d2:	f002 0202 	and.w	r2, r2, #2
 80006d6:	9203      	str	r2, [sp, #12]
 80006d8:	9a03      	ldr	r2, [sp, #12]
 80006da:	9404      	str	r4, [sp, #16]
 80006dc:	6b1a      	ldr	r2, [r3, #48]	; 0x30
 80006de:	f042 0208 	orr.w	r2, r2, #8
 80006e2:	631a      	str	r2, [r3, #48]	; 0x30
 80006e4:	6b1b      	ldr	r3, [r3, #48]	; 0x30
 80006e6:	f003 0308 	and.w	r3, r3, #8
 80006ea:	9304      	str	r3, [sp, #16]
 80006ec:	4622      	mov	r2, r4
 80006ee:	4640      	mov	r0, r8
 80006f0:	f248 0150 	movw	r1, #32848	; 0x8050
 80006f4:	9b04      	ldr	r3, [sp, #16]
 80006f6:	f001 fa6d 	bl	8001bd4 <HAL_GPIO_WritePin>
 80006fa:	4622      	mov	r2, r4
 80006fc:	4638      	mov	r0, r7
 80006fe:	2130      	movs	r1, #48	; 0x30
 8000700:	f001 fa68 	bl	8001bd4 <HAL_GPIO_WritePin>
 8000704:	4622      	mov	r2, r4
 8000706:	4628      	mov	r0, r5
 8000708:	f248 01f3 	movw	r1, #33011	; 0x80f3
 800070c:	f001 fa62 	bl	8001bd4 <HAL_GPIO_WritePin>
 8000710:	f44f 537f 	mov.w	r3, #16320	; 0x3fc0
 8000714:	a905      	add	r1, sp, #20
 8000716:	4638      	mov	r0, r7
 8000718:	e9cd 3405 	strd	r3, r4, [sp, #20]
 800071c:	9407      	str	r4, [sp, #28]
 800071e:	f001 f97f 	bl	8001a20 <HAL_GPIO_Init>
 8000722:	f44f 7381 	mov.w	r3, #258	; 0x102
 8000726:	a905      	add	r1, sp, #20
 8000728:	4640      	mov	r0, r8
 800072a:	2601      	movs	r6, #1
 800072c:	e9cd 3405 	strd	r3, r4, [sp, #20]
 8000730:	9407      	str	r4, [sp, #28]
 8000732:	f001 f975 	bl	8001a20 <HAL_GPIO_Init>
 8000736:	f248 0350 	movw	r3, #32848	; 0x8050
 800073a:	a905      	add	r1, sp, #20
 800073c:	4640      	mov	r0, r8
 800073e:	e9cd 3605 	strd	r3, r6, [sp, #20]
 8000742:	e9cd 4407 	strd	r4, r4, [sp, #28]
 8000746:	f001 f96b 	bl	8001a20 <HAL_GPIO_Init>
 800074a:	2330      	movs	r3, #48	; 0x30
 800074c:	a905      	add	r1, sp, #20
 800074e:	4638      	mov	r0, r7
 8000750:	e9cd 3605 	strd	r3, r6, [sp, #20]
 8000754:	e9cd 4407 	strd	r4, r4, [sp, #28]
 8000758:	f001 f962 	bl	8001a20 <HAL_GPIO_Init>
 800075c:	f248 03f3 	movw	r3, #33011	; 0x80f3
 8000760:	a905      	add	r1, sp, #20
 8000762:	4628      	mov	r0, r5
 8000764:	e9cd 3605 	strd	r3, r6, [sp, #20]
 8000768:	2704      	movs	r7, #4
 800076a:	e9cd 4407 	strd	r4, r4, [sp, #28]
 800076e:	f001 f957 	bl	8001a20 <HAL_GPIO_Init>
 8000772:	a905      	add	r1, sp, #20
 8000774:	4628      	mov	r0, r5
 8000776:	e9cd 7405 	strd	r7, r4, [sp, #20]
 800077a:	9407      	str	r4, [sp, #28]
 800077c:	f001 f950 	bl	8001a20 <HAL_GPIO_Init>
 8000780:	f44f 4280 	mov.w	r2, #16384	; 0x4000
 8000784:	f44f 1388 	mov.w	r3, #1114112	; 0x110000
 8000788:	a905      	add	r1, sp, #20
 800078a:	4628      	mov	r0, r5
 800078c:	e9cd 2305 	strd	r2, r3, [sp, #20]
 8000790:	9407      	str	r4, [sp, #28]
 8000792:	f001 f945 	bl	8001a20 <HAL_GPIO_Init>
 8000796:	a905      	add	r1, sp, #20
 8000798:	480f      	ldr	r0, [pc, #60]	; (80007d8 <MX_GPIO_Init+0x16c>)
 800079a:	9607      	str	r6, [sp, #28]
 800079c:	e9cd 7405 	strd	r7, r4, [sp, #20]
 80007a0:	f001 f93e 	bl	8001a20 <HAL_GPIO_Init>
 80007a4:	2308      	movs	r3, #8
 80007a6:	a905      	add	r1, sp, #20
 80007a8:	4628      	mov	r0, r5
 80007aa:	e9cd 3405 	strd	r3, r4, [sp, #20]
 80007ae:	9607      	str	r6, [sp, #28]
 80007b0:	f001 f936 	bl	8001a20 <HAL_GPIO_Init>
 80007b4:	4622      	mov	r2, r4
 80007b6:	4621      	mov	r1, r4
 80007b8:	2028      	movs	r0, #40	; 0x28
 80007ba:	f000 ff3b 	bl	8001634 <HAL_NVIC_SetPriority>
 80007be:	2028      	movs	r0, #40	; 0x28
 80007c0:	f000 ff6a 	bl	8001698 <HAL_NVIC_EnableIRQ>
 80007c4:	b00a      	add	sp, #40	; 0x28
 80007c6:	e8bd 81f0 	ldmia.w	sp!, {r4, r5, r6, r7, r8, pc}
 80007ca:	bf00      	nop
 80007cc:	40023800 	.word	0x40023800
 80007d0:	40020800 	.word	0x40020800
 80007d4:	40020400 	.word	0x40020400
 80007d8:	40020c00 	.word	0x40020c00
 80007dc:	40020000 	.word	0x40020000

080007e0 <tft_char_is_changed>:
 80007e0:	b5f0      	push	{r4, r5, r6, r7, lr}
 80007e2:	4b16      	ldr	r3, [pc, #88]	; (800083c <tft_char_is_changed+0x5c>)
 80007e4:	7805      	ldrb	r5, [r0, #0]
 80007e6:	781b      	ldrb	r3, [r3, #0]
 80007e8:	fb03 1202 	mla	r2, r3, r2, r1
 80007ec:	23a0      	movs	r3, #160	; 0xa0
 80007ee:	2d00      	cmp	r5, #0
 80007f0:	bf0c      	ite	eq
 80007f2:	461c      	moveq	r4, r3
 80007f4:	2400      	movne	r4, #0
 80007f6:	1901      	adds	r1, r0, r4
 80007f8:	fb03 0605 	mla	r6, r3, r5, r0
 80007fc:	fa16 f682 	uxtah	r6, r6, r2
 8000800:	b297      	uxth	r7, r2
 8000802:	fa11 f282 	uxtah	r2, r1, r2
 8000806:	7871      	ldrb	r1, [r6, #1]
 8000808:	7852      	ldrb	r2, [r2, #1]
 800080a:	4291      	cmp	r1, r2
 800080c:	d114      	bne.n	8000838 <tft_char_is_changed+0x58>
 800080e:	fb13 7305 	smlabb	r3, r3, r5, r7
 8000812:	443c      	add	r4, r7
 8000814:	eb00 0343 	add.w	r3, r0, r3, lsl #1
 8000818:	eb00 0044 	add.w	r0, r0, r4, lsl #1
 800081c:	f8b3 1142 	ldrh.w	r1, [r3, #322]	; 0x142
 8000820:	f8b0 2142 	ldrh.w	r2, [r0, #322]	; 0x142
 8000824:	4291      	cmp	r1, r2
 8000826:	d107      	bne.n	8000838 <tft_char_is_changed+0x58>
 8000828:	f8b3 33c2 	ldrh.w	r3, [r3, #962]	; 0x3c2
 800082c:	f8b0 03c2 	ldrh.w	r0, [r0, #962]	; 0x3c2
 8000830:	1a18      	subs	r0, r3, r0
 8000832:	bf18      	it	ne
 8000834:	2001      	movne	r0, #1
 8000836:	bdf0      	pop	{r4, r5, r6, r7, pc}
 8000838:	2001      	movs	r0, #1
 800083a:	e7fc      	b.n	8000836 <tft_char_is_changed+0x56>
 800083c:	200056d5 	.word	0x200056d5

08000840 <tft_clear>:
 8000840:	b5f0      	push	{r4, r5, r6, r7, lr}
 8000842:	4b0f      	ldr	r3, [pc, #60]	; (8000880 <tft_clear+0x40>)
 8000844:	781e      	ldrb	r6, [r3, #0]
 8000846:	4b0f      	ldr	r3, [pc, #60]	; (8000884 <tft_clear+0x44>)
 8000848:	781d      	ldrb	r5, [r3, #0]
 800084a:	4b0f      	ldr	r3, [pc, #60]	; (8000888 <tft_clear+0x48>)
 800084c:	2200      	movs	r2, #0
 800084e:	681c      	ldr	r4, [r3, #0]
 8000850:	4610      	mov	r0, r2
 8000852:	27a0      	movs	r7, #160	; 0xa0
 8000854:	f04f 0c20 	mov.w	ip, #32
 8000858:	b2c3      	uxtb	r3, r0
 800085a:	429e      	cmp	r6, r3
 800085c:	d80e      	bhi.n	800087c <tft_clear+0x3c>
 800085e:	bdf0      	pop	{r4, r5, r6, r7, pc}
 8000860:	7823      	ldrb	r3, [r4, #0]
 8000862:	fb07 4303 	mla	r3, r7, r3, r4
 8000866:	440b      	add	r3, r1
 8000868:	4413      	add	r3, r2
 800086a:	3101      	adds	r1, #1
 800086c:	f883 c001 	strb.w	ip, [r3, #1]
 8000870:	b2cb      	uxtb	r3, r1
 8000872:	429d      	cmp	r5, r3
 8000874:	d8f4      	bhi.n	8000860 <tft_clear+0x20>
 8000876:	3001      	adds	r0, #1
 8000878:	442a      	add	r2, r5
 800087a:	e7ed      	b.n	8000858 <tft_clear+0x18>
 800087c:	2100      	movs	r1, #0
 800087e:	e7f7      	b.n	8000870 <tft_clear+0x30>
 8000880:	200056d4 	.word	0x200056d4
 8000884:	200056d5 	.word	0x200056d5
 8000888:	20000000 	.word	0x20000000

0800088c <tft_clear_full>:
 800088c:	e92d 4ff0 	stmdb	sp!, {r4, r5, r6, r7, r8, r9, sl, fp, lr}
 8000890:	4b18      	ldr	r3, [pc, #96]	; (80008f4 <tft_clear_full+0x68>)
 8000892:	781e      	ldrb	r6, [r3, #0]
 8000894:	4b18      	ldr	r3, [pc, #96]	; (80008f8 <tft_clear_full+0x6c>)
 8000896:	f893 8000 	ldrb.w	r8, [r3]
 800089a:	4b18      	ldr	r3, [pc, #96]	; (80008fc <tft_clear_full+0x70>)
 800089c:	681c      	ldr	r4, [r3, #0]
 800089e:	4b18      	ldr	r3, [pc, #96]	; (8000900 <tft_clear_full+0x74>)
 80008a0:	f8b3 c000 	ldrh.w	ip, [r3]
 80008a4:	4b17      	ldr	r3, [pc, #92]	; (8000904 <tft_clear_full+0x78>)
 80008a6:	2200      	movs	r2, #0
 80008a8:	f8b3 e000 	ldrh.w	lr, [r3]
 80008ac:	4647      	mov	r7, r8
 80008ae:	4610      	mov	r0, r2
 80008b0:	25a0      	movs	r5, #160	; 0xa0
 80008b2:	f04f 0920 	mov.w	r9, #32
 80008b6:	b2c3      	uxtb	r3, r0
 80008b8:	429e      	cmp	r6, r3
 80008ba:	d819      	bhi.n	80008f0 <tft_clear_full+0x64>
 80008bc:	e8bd 8ff0 	ldmia.w	sp!, {r4, r5, r6, r7, r8, r9, sl, fp, pc}
 80008c0:	7823      	ldrb	r3, [r4, #0]
 80008c2:	eb02 0b01 	add.w	fp, r2, r1
 80008c6:	fb05 4a03 	mla	sl, r5, r3, r4
 80008ca:	fb15 b303 	smlabb	r3, r5, r3, fp
 80008ce:	eb04 0343 	add.w	r3, r4, r3, lsl #1
 80008d2:	44da      	add	sl, fp
 80008d4:	3101      	adds	r1, #1
 80008d6:	f88a 9001 	strb.w	r9, [sl, #1]
 80008da:	f8a3 c142 	strh.w	ip, [r3, #322]	; 0x142
 80008de:	f8a3 e3c2 	strh.w	lr, [r3, #962]	; 0x3c2
 80008e2:	b2cb      	uxtb	r3, r1
 80008e4:	4598      	cmp	r8, r3
 80008e6:	d8eb      	bhi.n	80008c0 <tft_clear_full+0x34>
 80008e8:	443a      	add	r2, r7
 80008ea:	3001      	adds	r0, #1
 80008ec:	b292      	uxth	r2, r2
 80008ee:	e7e2      	b.n	80008b6 <tft_clear_full+0x2a>
 80008f0:	2100      	movs	r1, #0
 80008f2:	e7f6      	b.n	80008e2 <tft_clear_full+0x56>
 80008f4:	200056d4 	.word	0x200056d4
 80008f8:	200056d5 	.word	0x200056d5
 80008fc:	20000000 	.word	0x20000000
 8000900:	20000036 	.word	0x20000036
 8000904:	20000032 	.word	0x20000032

08000908 <write_data>:
 8000908:	460a      	mov	r2, r1
 800090a:	2301      	movs	r3, #1
 800090c:	4601      	mov	r1, r0
 800090e:	4801      	ldr	r0, [pc, #4]	; (8000914 <write_data+0xc>)
 8000910:	f001 bcee 	b.w	80022f0 <HAL_SPI_Transmit>
 8000914:	200056d8 	.word	0x200056d8

08000918 <write_command>:
 8000918:	b513      	push	{r0, r1, r4, lr}
 800091a:	f88d 0007 	strb.w	r0, [sp, #7]
 800091e:	480c      	ldr	r0, [pc, #48]	; (8000950 <write_command+0x38>)
 8000920:	f001 fed4 	bl	80026cc <HAL_SPI_GetState>
 8000924:	2801      	cmp	r0, #1
 8000926:	4604      	mov	r4, r0
 8000928:	d1f9      	bne.n	800091e <write_command+0x6>
 800092a:	480a      	ldr	r0, [pc, #40]	; (8000954 <write_command+0x3c>)
 800092c:	2200      	movs	r2, #0
 800092e:	2110      	movs	r1, #16
 8000930:	f001 f950 	bl	8001bd4 <HAL_GPIO_WritePin>
 8000934:	4623      	mov	r3, r4
 8000936:	4622      	mov	r2, r4
 8000938:	f10d 0107 	add.w	r1, sp, #7
 800093c:	4804      	ldr	r0, [pc, #16]	; (8000950 <write_command+0x38>)
 800093e:	f001 fcd7 	bl	80022f0 <HAL_SPI_Transmit>
 8000942:	4804      	ldr	r0, [pc, #16]	; (8000954 <write_command+0x3c>)
 8000944:	4622      	mov	r2, r4
 8000946:	2110      	movs	r1, #16
 8000948:	f001 f944 	bl	8001bd4 <HAL_GPIO_WritePin>
 800094c:	b002      	add	sp, #8
 800094e:	bd10      	pop	{r4, pc}
 8000950:	200056d8 	.word	0x200056d8
 8000954:	40020800 	.word	0x40020800

08000958 <tft_set_region>:
 8000958:	b5f7      	push	{r0, r1, r2, r4, r5, r6, r7, lr}
 800095a:	4c18      	ldr	r4, [pc, #96]	; (80009bc <tft_set_region+0x64>)
 800095c:	f894 e000 	ldrb.w	lr, [r4]
 8000960:	4c17      	ldr	r4, [pc, #92]	; (80009c0 <tft_set_region+0x68>)
 8000962:	f894 c000 	ldrb.w	ip, [r4]
 8000966:	4472      	add	r2, lr
 8000968:	eb0e 0700 	add.w	r7, lr, r0
 800096c:	4463      	add	r3, ip
 800096e:	4410      	add	r0, r2
 8000970:	eb0c 0601 	add.w	r6, ip, r1
 8000974:	b285      	uxth	r5, r0
 8000976:	4419      	add	r1, r3
 8000978:	202a      	movs	r0, #42	; 0x2a
 800097a:	b28c      	uxth	r4, r1
 800097c:	b2bf      	uxth	r7, r7
 800097e:	f7ff ffcb 	bl	8000918 <write_command>
 8000982:	2104      	movs	r1, #4
 8000984:	eb0d 0001 	add.w	r0, sp, r1
 8000988:	ba7f      	rev16	r7, r7
 800098a:	ba6d      	rev16	r5, r5
 800098c:	f8ad 7004 	strh.w	r7, [sp, #4]
 8000990:	f8ad 5006 	strh.w	r5, [sp, #6]
 8000994:	f7ff ffb8 	bl	8000908 <write_data>
 8000998:	202b      	movs	r0, #43	; 0x2b
 800099a:	f7ff ffbd 	bl	8000918 <write_command>
 800099e:	b2b6      	uxth	r6, r6
 80009a0:	2104      	movs	r1, #4
 80009a2:	ba76      	rev16	r6, r6
 80009a4:	ba64      	rev16	r4, r4
 80009a6:	eb0d 0001 	add.w	r0, sp, r1
 80009aa:	f8ad 6004 	strh.w	r6, [sp, #4]
 80009ae:	f8ad 4006 	strh.w	r4, [sp, #6]
 80009b2:	f7ff ffa9 	bl	8000908 <write_data>
 80009b6:	b003      	add	sp, #12
 80009b8:	bdf0      	pop	{r4, r5, r6, r7, pc}
 80009ba:	bf00      	nop
 80009bc:	20000031 	.word	0x20000031
 80009c0:	20000680 	.word	0x20000680

080009c4 <tft_print_rectangle_dma>:
 80009c4:	e92d 41f3 	stmdb	sp!, {r0, r1, r4, r5, r6, r7, r8, lr}
 80009c8:	4d23      	ldr	r5, [pc, #140]	; (8000a58 <tft_print_rectangle_dma+0x94>)
 80009ca:	4f24      	ldr	r7, [pc, #144]	; (8000a5c <tft_print_rectangle_dma+0x98>)
 80009cc:	782c      	ldrb	r4, [r5, #0]
 80009ce:	4696      	mov	lr, r2
 80009d0:	9a08      	ldr	r2, [sp, #32]
 80009d2:	fb02 f603 	mul.w	r6, r2, r3
 80009d6:	f5b6 5fa0 	cmp.w	r6, #5120	; 0x1400
 80009da:	468c      	mov	ip, r1
 80009dc:	f44f 5120 	mov.w	r1, #10240	; 0x2800
 80009e0:	bf28      	it	cs
 80009e2:	f44f 56a0 	movcs.w	r6, #5120	; 0x1400
 80009e6:	fb01 7404 	mla	r4, r1, r4, r7
 80009ea:	ea4f 0846 	mov.w	r8, r6, lsl #1
 80009ee:	0a01      	lsrs	r1, r0, #8
 80009f0:	eb04 0646 	add.w	r6, r4, r6, lsl #1
 80009f4:	b2c0      	uxtb	r0, r0
 80009f6:	42b4      	cmp	r4, r6
 80009f8:	d128      	bne.n	8000a4c <tft_print_rectangle_dma+0x88>
 80009fa:	1e56      	subs	r6, r2, #1
 80009fc:	1e5a      	subs	r2, r3, #1
 80009fe:	fa1f f08c 	uxth.w	r0, ip
 8000a02:	b2b3      	uxth	r3, r6
 8000a04:	b292      	uxth	r2, r2
 8000a06:	fa1f f18e 	uxth.w	r1, lr
 8000a0a:	f7ff ffa5 	bl	8000958 <tft_set_region>
 8000a0e:	202c      	movs	r0, #44	; 0x2c
 8000a10:	f7ff ff82 	bl	8000918 <write_command>
 8000a14:	4c12      	ldr	r4, [pc, #72]	; (8000a60 <tft_print_rectangle_dma+0x9c>)
 8000a16:	4620      	mov	r0, r4
 8000a18:	f001 fe58 	bl	80026cc <HAL_SPI_GetState>
 8000a1c:	2801      	cmp	r0, #1
 8000a1e:	d1fa      	bne.n	8000a16 <tft_print_rectangle_dma+0x52>
 8000a20:	7829      	ldrb	r1, [r5, #0]
 8000a22:	f44f 5320 	mov.w	r3, #10240	; 0x2800
 8000a26:	fb03 7101 	mla	r1, r3, r1, r7
 8000a2a:	202c      	movs	r0, #44	; 0x2c
 8000a2c:	9101      	str	r1, [sp, #4]
 8000a2e:	f7ff ff73 	bl	8000918 <write_command>
 8000a32:	9901      	ldr	r1, [sp, #4]
 8000a34:	480a      	ldr	r0, [pc, #40]	; (8000a60 <tft_print_rectangle_dma+0x9c>)
 8000a36:	fa1f f288 	uxth.w	r2, r8
 8000a3a:	f001 fd07 	bl	800244c <HAL_SPI_Transmit_DMA>
 8000a3e:	782b      	ldrb	r3, [r5, #0]
 8000a40:	f083 0301 	eor.w	r3, r3, #1
 8000a44:	702b      	strb	r3, [r5, #0]
 8000a46:	b002      	add	sp, #8
 8000a48:	e8bd 81f0 	ldmia.w	sp!, {r4, r5, r6, r7, r8, pc}
 8000a4c:	f804 1b02 	strb.w	r1, [r4], #2
 8000a50:	f804 0c01 	strb.w	r0, [r4, #-1]
 8000a54:	e7cf      	b.n	80009f6 <tft_print_rectangle_dma+0x32>
 8000a56:	bf00      	nop
 8000a58:	20000030 	.word	0x20000030
 8000a5c:	20000681 	.word	0x20000681
 8000a60:	200056d8 	.word	0x200056d8

08000a64 <tft_print_rectangle>:
 8000a64:	e92d 4ff0 	stmdb	sp!, {r4, r5, r6, r7, r8, r9, sl, fp, lr}
 8000a68:	b087      	sub	sp, #28
 8000a6a:	460e      	mov	r6, r1
 8000a6c:	9d10      	ldr	r5, [sp, #64]	; 0x40
 8000a6e:	fb05 f403 	mul.w	r4, r5, r3
 8000a72:	2c40      	cmp	r4, #64	; 0x40
 8000a74:	4617      	mov	r7, r2
 8000a76:	d817      	bhi.n	8000aa8 <tft_print_rectangle+0x44>
 8000a78:	ba40      	rev16	r0, r0
 8000a7a:	1e5a      	subs	r2, r3, #1
 8000a7c:	3d01      	subs	r5, #1
 8000a7e:	f8ad 0014 	strh.w	r0, [sp, #20]
 8000a82:	b2ab      	uxth	r3, r5
 8000a84:	b2b0      	uxth	r0, r6
 8000a86:	b292      	uxth	r2, r2
 8000a88:	b2b9      	uxth	r1, r7
 8000a8a:	f7ff ff65 	bl	8000958 <tft_set_region>
 8000a8e:	202c      	movs	r0, #44	; 0x2c
 8000a90:	f7ff ff42 	bl	8000918 <write_command>
 8000a94:	b914      	cbnz	r4, 8000a9c <tft_print_rectangle+0x38>
 8000a96:	b007      	add	sp, #28
 8000a98:	e8bd 8ff0 	ldmia.w	sp!, {r4, r5, r6, r7, r8, r9, sl, fp, pc}
 8000a9c:	2102      	movs	r1, #2
 8000a9e:	a805      	add	r0, sp, #20
 8000aa0:	f7ff ff32 	bl	8000908 <write_data>
 8000aa4:	3c01      	subs	r4, #1
 8000aa6:	e7f5      	b.n	8000a94 <tft_print_rectangle+0x30>
 8000aa8:	f44f 54a0 	mov.w	r4, #5120	; 0x1400
 8000aac:	4693      	mov	fp, r2
 8000aae:	fbb4 f4f3 	udiv	r4, r4, r3
 8000ab2:	f04f 0900 	mov.w	r9, #0
 8000ab6:	fbb5 f8f4 	udiv	r8, r5, r4
 8000aba:	fa1f fa88 	uxth.w	sl, r8
 8000abe:	45d1      	cmp	r9, sl
 8000ac0:	db0a      	blt.n	8000ad8 <tft_print_rectangle+0x74>
 8000ac2:	fb04 5518 	mls	r5, r4, r8, r5
 8000ac6:	2d00      	cmp	r5, #0
 8000ac8:	d0e5      	beq.n	8000a96 <tft_print_rectangle+0x32>
 8000aca:	9500      	str	r5, [sp, #0]
 8000acc:	fb0a 7204 	mla	r2, sl, r4, r7
 8000ad0:	4631      	mov	r1, r6
 8000ad2:	f7ff ff77 	bl	80009c4 <tft_print_rectangle_dma>
 8000ad6:	e7de      	b.n	8000a96 <tft_print_rectangle+0x32>
 8000ad8:	465a      	mov	r2, fp
 8000ada:	9400      	str	r4, [sp, #0]
 8000adc:	4631      	mov	r1, r6
 8000ade:	9303      	str	r3, [sp, #12]
 8000ae0:	9002      	str	r0, [sp, #8]
 8000ae2:	f109 0901 	add.w	r9, r9, #1
 8000ae6:	f7ff ff6d 	bl	80009c4 <tft_print_rectangle_dma>
 8000aea:	44a3      	add	fp, r4
 8000aec:	e9dd 0302 	ldrd	r0, r3, [sp, #8]
 8000af0:	e7e5      	b.n	8000abe <tft_print_rectangle+0x5a>
	...

08000af4 <tft_print_image>:
 8000af4:	e92d 41f0 	stmdb	sp!, {r4, r5, r6, r7, r8, lr}
 8000af8:	9d06      	ldr	r5, [sp, #24]
 8000afa:	4606      	mov	r6, r0
 8000afc:	460f      	mov	r7, r1
 8000afe:	4690      	mov	r8, r2
 8000b00:	461c      	mov	r4, r3
 8000b02:	480e      	ldr	r0, [pc, #56]	; (8000b3c <tft_print_image+0x48>)
 8000b04:	f001 fde2 	bl	80026cc <HAL_SPI_GetState>
 8000b08:	2801      	cmp	r0, #1
 8000b0a:	d1fa      	bne.n	8000b02 <tft_print_image+0xe>
 8000b0c:	b2a4      	uxth	r4, r4
 8000b0e:	b2ad      	uxth	r5, r5
 8000b10:	1e6b      	subs	r3, r5, #1
 8000b12:	1e62      	subs	r2, r4, #1
 8000b14:	fa1f f188 	uxth.w	r1, r8
 8000b18:	b292      	uxth	r2, r2
 8000b1a:	b2b8      	uxth	r0, r7
 8000b1c:	b29b      	uxth	r3, r3
 8000b1e:	f7ff ff1b 	bl	8000958 <tft_set_region>
 8000b22:	202c      	movs	r0, #44	; 0x2c
 8000b24:	f7ff fef8 	bl	8000918 <write_command>
 8000b28:	fb14 f205 	smulbb	r2, r4, r5
 8000b2c:	0052      	lsls	r2, r2, #1
 8000b2e:	4631      	mov	r1, r6
 8000b30:	4802      	ldr	r0, [pc, #8]	; (8000b3c <tft_print_image+0x48>)
 8000b32:	e8bd 41f0 	ldmia.w	sp!, {r4, r5, r6, r7, r8, lr}
 8000b36:	b292      	uxth	r2, r2
 8000b38:	f001 bc88 	b.w	800244c <HAL_SPI_Transmit_DMA>
 8000b3c:	200056d8 	.word	0x200056d8

08000b40 <tft_update>:
 8000b40:	e92d 4ff0 	stmdb	sp!, {r4, r5, r6, r7, r8, r9, sl, fp, lr}
 8000b44:	ed2d 8b02 	vpush	{d8}
 8000b48:	4d69      	ldr	r5, [pc, #420]	; (8000cf0 <tft_update+0x1b0>)
 8000b4a:	b08d      	sub	sp, #52	; 0x34
 8000b4c:	4604      	mov	r4, r0
 8000b4e:	f000 fcc9 	bl	80014e4 <HAL_GetTick>
 8000b52:	682b      	ldr	r3, [r5, #0]
 8000b54:	1ac0      	subs	r0, r0, r3
 8000b56:	42a0      	cmp	r0, r4
 8000b58:	f0c0 80c7 	bcc.w	8000cea <tft_update+0x1aa>
 8000b5c:	f000 fcc2 	bl	80014e4 <HAL_GetTick>
 8000b60:	f04f 0b00 	mov.w	fp, #0
 8000b64:	6028      	str	r0, [r5, #0]
 8000b66:	4b63      	ldr	r3, [pc, #396]	; (8000cf4 <tft_update+0x1b4>)
 8000b68:	781b      	ldrb	r3, [r3, #0]
 8000b6a:	fa5f f68b 	uxtb.w	r6, fp
 8000b6e:	42b3      	cmp	r3, r6
 8000b70:	f240 80ac 	bls.w	8000ccc <tft_update+0x18c>
 8000b74:	0133      	lsls	r3, r6, #4
 8000b76:	ee08 3a10 	vmov	s16, r3
 8000b7a:	2400      	movs	r4, #0
 8000b7c:	e094      	b.n	8000ca8 <tft_update+0x168>
 8000b7e:	4632      	mov	r2, r6
 8000b80:	4621      	mov	r1, r4
 8000b82:	4638      	mov	r0, r7
 8000b84:	f7ff fe2c 	bl	80007e0 <tft_char_is_changed>
 8000b88:	2800      	cmp	r0, #0
 8000b8a:	f000 808b 	beq.w	8000ca4 <tft_update+0x164>
 8000b8e:	2301      	movs	r3, #1
 8000b90:	fa5f f883 	uxtb.w	r8, r3
 8000b94:	461d      	mov	r5, r3
 8000b96:	18e3      	adds	r3, r4, r3
 8000b98:	4599      	cmp	r9, r3
 8000b9a:	dd09      	ble.n	8000bb0 <tft_update+0x70>
 8000b9c:	eb04 0108 	add.w	r1, r4, r8
 8000ba0:	4632      	mov	r2, r6
 8000ba2:	b2c9      	uxtb	r1, r1
 8000ba4:	4638      	mov	r0, r7
 8000ba6:	f7ff fe1b 	bl	80007e0 <tft_char_is_changed>
 8000baa:	2800      	cmp	r0, #0
 8000bac:	f040 8087 	bne.w	8000cbe <tft_update+0x17e>
 8000bb0:	4b51      	ldr	r3, [pc, #324]	; (8000cf8 <tft_update+0x1b8>)
 8000bb2:	f108 32ff 	add.w	r2, r8, #4294967295
 8000bb6:	7818      	ldrb	r0, [r3, #0]
 8000bb8:	fb06 4109 	mla	r1, r6, r9, r4
 8000bbc:	f44f 5320 	mov.w	r3, #10240	; 0x2800
 8000bc0:	f8df 9144 	ldr.w	r9, [pc, #324]	; 8000d08 <tft_update+0x1c8>
 8000bc4:	9109      	str	r1, [sp, #36]	; 0x24
 8000bc6:	b2d2      	uxtb	r2, r2
 8000bc8:	fb03 fa00 	mul.w	sl, r3, r0
 8000bcc:	3201      	adds	r2, #1
 8000bce:	2300      	movs	r3, #0
 8000bd0:	eb09 010a 	add.w	r1, r9, sl
 8000bd4:	0112      	lsls	r2, r2, #4
 8000bd6:	9305      	str	r3, [sp, #20]
 8000bd8:	910a      	str	r1, [sp, #40]	; 0x28
 8000bda:	920b      	str	r2, [sp, #44]	; 0x2c
 8000bdc:	2200      	movs	r2, #0
 8000bde:	9203      	str	r2, [sp, #12]
 8000be0:	9903      	ldr	r1, [sp, #12]
 8000be2:	9a05      	ldr	r2, [sp, #20]
 8000be4:	7838      	ldrb	r0, [r7, #0]
 8000be6:	eb02 1201 	add.w	r2, r2, r1, lsl #4
 8000bea:	b292      	uxth	r2, r2
 8000bec:	9204      	str	r2, [sp, #16]
 8000bee:	9a09      	ldr	r2, [sp, #36]	; 0x24
 8000bf0:	eb02 0c01 	add.w	ip, r2, r1
 8000bf4:	22a0      	movs	r2, #160	; 0xa0
 8000bf6:	fb02 7e00 	mla	lr, r2, r0, r7
 8000bfa:	44e6      	add	lr, ip
 8000bfc:	4611      	mov	r1, r2
 8000bfe:	f89e e001 	ldrb.w	lr, [lr, #1]
 8000c02:	4a3e      	ldr	r2, [pc, #248]	; (8000cfc <tft_update+0x1bc>)
 8000c04:	fb11 c000 	smlabb	r0, r1, r0, ip
 8000c08:	eb07 0040 	add.w	r0, r7, r0, lsl #1
 8000c0c:	f1ae 0e20 	sub.w	lr, lr, #32
 8000c10:	eb02 1e0e 	add.w	lr, r2, lr, lsl #4
 8000c14:	f8b0 2142 	ldrh.w	r2, [r0, #322]	; 0x142
 8000c18:	f81e e003 	ldrb.w	lr, [lr, r3]
 8000c1c:	9207      	str	r2, [sp, #28]
 8000c1e:	f8b0 23c2 	ldrh.w	r2, [r0, #962]	; 0x3c2
 8000c22:	f8cd e018 	str.w	lr, [sp, #24]
 8000c26:	9208      	str	r2, [sp, #32]
 8000c28:	2007      	movs	r0, #7
 8000c2a:	9a06      	ldr	r2, [sp, #24]
 8000c2c:	9904      	ldr	r1, [sp, #16]
 8000c2e:	fa42 fc00 	asr.w	ip, r2, r0
 8000c32:	9a07      	ldr	r2, [sp, #28]
 8000c34:	f01c 0f01 	tst.w	ip, #1
 8000c38:	4694      	mov	ip, r2
 8000c3a:	9a08      	ldr	r2, [sp, #32]
 8000c3c:	bf14      	ite	ne
 8000c3e:	46e6      	movne	lr, ip
 8000c40:	4696      	moveq	lr, r2
 8000c42:	9a0a      	ldr	r2, [sp, #40]	; 0x28
 8000c44:	ea4f 2c1e 	mov.w	ip, lr, lsr #8
 8000c48:	f802 c001 	strb.w	ip, [r2, r1]
 8000c4c:	460a      	mov	r2, r1
 8000c4e:	eb01 0c0a 	add.w	ip, r1, sl
 8000c52:	44cc      	add	ip, r9
 8000c54:	3202      	adds	r2, #2
 8000c56:	b292      	uxth	r2, r2
 8000c58:	3801      	subs	r0, #1
 8000c5a:	f88c e001 	strb.w	lr, [ip, #1]
 8000c5e:	9204      	str	r2, [sp, #16]
 8000c60:	d2e3      	bcs.n	8000c2a <tft_update+0xea>
 8000c62:	9a03      	ldr	r2, [sp, #12]
 8000c64:	3201      	adds	r2, #1
 8000c66:	9203      	str	r2, [sp, #12]
 8000c68:	f89d 200c 	ldrb.w	r2, [sp, #12]
 8000c6c:	4590      	cmp	r8, r2
 8000c6e:	d1b7      	bne.n	8000be0 <tft_update+0xa0>
 8000c70:	9a05      	ldr	r2, [sp, #20]
 8000c72:	990b      	ldr	r1, [sp, #44]	; 0x2c
 8000c74:	3301      	adds	r3, #1
 8000c76:	440a      	add	r2, r1
 8000c78:	b292      	uxth	r2, r2
 8000c7a:	2b10      	cmp	r3, #16
 8000c7c:	9205      	str	r2, [sp, #20]
 8000c7e:	d1ad      	bne.n	8000bdc <tft_update+0x9c>
 8000c80:	ee18 2a10 	vmov	r2, s16
 8000c84:	9300      	str	r3, [sp, #0]
 8000c86:	00e1      	lsls	r1, r4, #3
 8000c88:	00eb      	lsls	r3, r5, #3
 8000c8a:	eb09 000a 	add.w	r0, r9, sl
 8000c8e:	f7ff ff31 	bl	8000af4 <tft_print_image>
 8000c92:	4a19      	ldr	r2, [pc, #100]	; (8000cf8 <tft_update+0x1b8>)
 8000c94:	7813      	ldrb	r3, [r2, #0]
 8000c96:	3c01      	subs	r4, #1
 8000c98:	f083 0301 	eor.w	r3, r3, #1
 8000c9c:	fa58 f484 	uxtab	r4, r8, r4
 8000ca0:	7013      	strb	r3, [r2, #0]
 8000ca2:	b2e4      	uxtb	r4, r4
 8000ca4:	3401      	adds	r4, #1
 8000ca6:	b2e4      	uxtb	r4, r4
 8000ca8:	4b15      	ldr	r3, [pc, #84]	; (8000d00 <tft_update+0x1c0>)
 8000caa:	f893 9000 	ldrb.w	r9, [r3]
 8000cae:	4b15      	ldr	r3, [pc, #84]	; (8000d04 <tft_update+0x1c4>)
 8000cb0:	454c      	cmp	r4, r9
 8000cb2:	681f      	ldr	r7, [r3, #0]
 8000cb4:	f4ff af63 	bcc.w	8000b7e <tft_update+0x3e>
 8000cb8:	f10b 0b01 	add.w	fp, fp, #1
 8000cbc:	e753      	b.n	8000b66 <tft_update+0x26>
 8000cbe:	2d28      	cmp	r5, #40	; 0x28
 8000cc0:	f105 0301 	add.w	r3, r5, #1
 8000cc4:	f47f af64 	bne.w	8000b90 <tft_update+0x50>
 8000cc8:	46a8      	mov	r8, r5
 8000cca:	e771      	b.n	8000bb0 <tft_update+0x70>
 8000ccc:	4b0d      	ldr	r3, [pc, #52]	; (8000d04 <tft_update+0x1c4>)
 8000cce:	681a      	ldr	r2, [r3, #0]
 8000cd0:	7813      	ldrb	r3, [r2, #0]
 8000cd2:	fab3 f383 	clz	r3, r3
 8000cd6:	095b      	lsrs	r3, r3, #5
 8000cd8:	7013      	strb	r3, [r2, #0]
 8000cda:	f7ff fdb1 	bl	8000840 <tft_clear>
 8000cde:	2000      	movs	r0, #0
 8000ce0:	b00d      	add	sp, #52	; 0x34
 8000ce2:	ecbd 8b02 	vpop	{d8}
 8000ce6:	e8bd 8ff0 	ldmia.w	sp!, {r4, r5, r6, r7, r8, r9, sl, fp, pc}
 8000cea:	2002      	movs	r0, #2
 8000cec:	e7f8      	b.n	8000ce0 <tft_update+0x1a0>
 8000cee:	bf00      	nop
 8000cf0:	2000067c 	.word	0x2000067c
 8000cf4:	200056d4 	.word	0x200056d4
 8000cf8:	20000030 	.word	0x20000030
 8000cfc:	08002f38 	.word	0x08002f38
 8000d00:	200056d5 	.word	0x200056d5
 8000d04:	20000000 	.word	0x20000000
 8000d08:	20000681 	.word	0x20000681

08000d0c <tft_force_clear>:
 8000d0c:	b507      	push	{r0, r1, r2, lr}
 8000d0e:	f7ff fdbd 	bl	800088c <tft_clear_full>
 8000d12:	2000      	movs	r0, #0
 8000d14:	f7ff ff14 	bl	8000b40 <tft_update>
 8000d18:	f7ff fdb8 	bl	800088c <tft_clear_full>
 8000d1c:	4b0a      	ldr	r3, [pc, #40]	; (8000d48 <tft_force_clear+0x3c>)
 8000d1e:	480b      	ldr	r0, [pc, #44]	; (8000d4c <tft_force_clear+0x40>)
 8000d20:	781a      	ldrb	r2, [r3, #0]
 8000d22:	f012 0201 	ands.w	r2, r2, #1
 8000d26:	bf15      	itete	ne
 8000d28:	2380      	movne	r3, #128	; 0x80
 8000d2a:	23a0      	moveq	r3, #160	; 0xa0
 8000d2c:	9300      	strne	r3, [sp, #0]
 8000d2e:	9300      	streq	r3, [sp, #0]
 8000d30:	bf18      	it	ne
 8000d32:	2200      	movne	r2, #0
 8000d34:	8800      	ldrh	r0, [r0, #0]
 8000d36:	bf14      	ite	ne
 8000d38:	23a0      	movne	r3, #160	; 0xa0
 8000d3a:	2380      	moveq	r3, #128	; 0x80
 8000d3c:	4611      	mov	r1, r2
 8000d3e:	f7ff fe91 	bl	8000a64 <tft_print_rectangle>
 8000d42:	b003      	add	sp, #12
 8000d44:	f85d fb04 	ldr.w	pc, [sp], #4
 8000d48:	20005681 	.word	0x20005681
 8000d4c:	20000032 	.word	0x20000032

08000d50 <tft_init>:
 8000d50:	e92d 4ff0 	stmdb	sp!, {r4, r5, r6, r7, r8, r9, sl, fp, lr}
 8000d54:	461f      	mov	r7, r3
 8000d56:	4b4f      	ldr	r3, [pc, #316]	; (8000e94 <tft_init+0x144>)
 8000d58:	4d4f      	ldr	r5, [pc, #316]	; (8000e98 <tft_init+0x148>)
 8000d5a:	681b      	ldr	r3, [r3, #0]
 8000d5c:	4e4f      	ldr	r6, [pc, #316]	; (8000e9c <tft_init+0x14c>)
 8000d5e:	2400      	movs	r4, #0
 8000d60:	701c      	strb	r4, [r3, #0]
 8000d62:	7028      	strb	r0, [r5, #0]
 8000d64:	f000 0001 	and.w	r0, r0, #1
 8000d68:	42a0      	cmp	r0, r4
 8000d6a:	4b4d      	ldr	r3, [pc, #308]	; (8000ea0 <tft_init+0x150>)
 8000d6c:	4690      	mov	r8, r2
 8000d6e:	bf14      	ite	ne
 8000d70:	2214      	movne	r2, #20
 8000d72:	2210      	moveq	r2, #16
 8000d74:	701a      	strb	r2, [r3, #0]
 8000d76:	4b4b      	ldr	r3, [pc, #300]	; (8000ea4 <tft_init+0x154>)
 8000d78:	bf14      	ite	ne
 8000d7a:	2208      	movne	r2, #8
 8000d7c:	220a      	moveq	r2, #10
 8000d7e:	b085      	sub	sp, #20
 8000d80:	701a      	strb	r2, [r3, #0]
 8000d82:	4689      	mov	r9, r1
 8000d84:	f000 f942 	bl	800100c <MX_SPI1_Init>
 8000d88:	2201      	movs	r2, #1
 8000d8a:	2140      	movs	r1, #64	; 0x40
 8000d8c:	4846      	ldr	r0, [pc, #280]	; (8000ea8 <tft_init+0x158>)
 8000d8e:	f000 ff21 	bl	8001bd4 <HAL_GPIO_WritePin>
 8000d92:	2064      	movs	r0, #100	; 0x64
 8000d94:	f000 fbac 	bl	80014f0 <HAL_Delay>
 8000d98:	4622      	mov	r2, r4
 8000d9a:	2140      	movs	r1, #64	; 0x40
 8000d9c:	4842      	ldr	r0, [pc, #264]	; (8000ea8 <tft_init+0x158>)
 8000d9e:	f000 ff19 	bl	8001bd4 <HAL_GPIO_WritePin>
 8000da2:	2064      	movs	r0, #100	; 0x64
 8000da4:	f000 fba4 	bl	80014f0 <HAL_Delay>
 8000da8:	2201      	movs	r2, #1
 8000daa:	2140      	movs	r1, #64	; 0x40
 8000dac:	483e      	ldr	r0, [pc, #248]	; (8000ea8 <tft_init+0x158>)
 8000dae:	f000 ff11 	bl	8001bd4 <HAL_GPIO_WritePin>
 8000db2:	2064      	movs	r0, #100	; 0x64
 8000db4:	f000 fb9c 	bl	80014f0 <HAL_Delay>
 8000db8:	2201      	movs	r2, #1
 8000dba:	483c      	ldr	r0, [pc, #240]	; (8000eac <tft_init+0x15c>)
 8000dbc:	4611      	mov	r1, r2
 8000dbe:	f000 ff09 	bl	8001bd4 <HAL_GPIO_WritePin>
 8000dc2:	46b2      	mov	sl, r6
 8000dc4:	1933      	adds	r3, r6, r4
 8000dc6:	7858      	ldrb	r0, [r3, #1]
 8000dc8:	2842      	cmp	r0, #66	; 0x42
 8000dca:	d10e      	bne.n	8000dea <tft_init+0x9a>
 8000dcc:	782b      	ldrb	r3, [r5, #0]
 8000dce:	4938      	ldr	r1, [pc, #224]	; (8000eb0 <tft_init+0x160>)
 8000dd0:	4a38      	ldr	r2, [pc, #224]	; (8000eb4 <tft_init+0x164>)
 8000dd2:	2b02      	cmp	r3, #2
 8000dd4:	d05b      	beq.n	8000e8e <tft_init+0x13e>
 8000dd6:	f003 03fd 	and.w	r3, r3, #253	; 0xfd
 8000dda:	2b01      	cmp	r3, #1
 8000ddc:	f04f 0002 	mov.w	r0, #2
 8000de0:	d042      	beq.n	8000e68 <tft_init+0x118>
 8000de2:	7008      	strb	r0, [r1, #0]
 8000de4:	2301      	movs	r3, #1
 8000de6:	7013      	strb	r3, [r2, #0]
 8000de8:	e040      	b.n	8000e6c <tft_init+0x11c>
 8000dea:	2836      	cmp	r0, #54	; 0x36
 8000dec:	d10f      	bne.n	8000e0e <tft_init+0xbe>
 8000dee:	4a32      	ldr	r2, [pc, #200]	; (8000eb8 <tft_init+0x168>)
 8000df0:	782b      	ldrb	r3, [r5, #0]
 8000df2:	5cd3      	ldrb	r3, [r2, r3]
 8000df4:	f88d 300f 	strb.w	r3, [sp, #15]
 8000df8:	f7ff fd8e 	bl	8000918 <write_command>
 8000dfc:	2101      	movs	r1, #1
 8000dfe:	f10d 000f 	add.w	r0, sp, #15
 8000e02:	f7ff fd81 	bl	8000908 <write_data>
 8000e06:	f104 0b02 	add.w	fp, r4, #2
 8000e0a:	465c      	mov	r4, fp
 8000e0c:	e7da      	b.n	8000dc4 <tft_init+0x74>
 8000e0e:	28ff      	cmp	r0, #255	; 0xff
 8000e10:	d106      	bne.n	8000e20 <tft_init+0xd0>
 8000e12:	f104 0b04 	add.w	fp, r4, #4
 8000e16:	f816 000b 	ldrb.w	r0, [r6, fp]
 8000e1a:	f000 fb69 	bl	80014f0 <HAL_Delay>
 8000e1e:	e7f4      	b.n	8000e0a <tft_init+0xba>
 8000e20:	f104 0b02 	add.w	fp, r4, #2
 8000e24:	f816 200b 	ldrb.w	r2, [r6, fp]
 8000e28:	2a43      	cmp	r2, #67	; 0x43
 8000e2a:	d102      	bne.n	8000e32 <tft_init+0xe2>
 8000e2c:	f7ff fd74 	bl	8000918 <write_command>
 8000e30:	e7eb      	b.n	8000e0a <tft_init+0xba>
 8000e32:	f06f 0e01 	mvn.w	lr, #1
 8000e36:	465a      	mov	r2, fp
 8000e38:	ebae 0e04 	sub.w	lr, lr, r4
 8000e3c:	eb0e 0102 	add.w	r1, lr, r2
 8000e40:	4614      	mov	r4, r2
 8000e42:	3201      	adds	r2, #1
 8000e44:	eb0a 0c02 	add.w	ip, sl, r2
 8000e48:	f81c cc01 	ldrb.w	ip, [ip, #-1]
 8000e4c:	f1bc 0f43 	cmp.w	ip, #67	; 0x43
 8000e50:	d1f4      	bne.n	8000e3c <tft_init+0xec>
 8000e52:	9101      	str	r1, [sp, #4]
 8000e54:	f7ff fd60 	bl	8000918 <write_command>
 8000e58:	9901      	ldr	r1, [sp, #4]
 8000e5a:	eb0a 000b 	add.w	r0, sl, fp
 8000e5e:	b289      	uxth	r1, r1
 8000e60:	f7ff fd52 	bl	8000908 <write_data>
 8000e64:	46a3      	mov	fp, r4
 8000e66:	e7d0      	b.n	8000e0a <tft_init+0xba>
 8000e68:	700b      	strb	r3, [r1, #0]
 8000e6a:	7010      	strb	r0, [r2, #0]
 8000e6c:	4b13      	ldr	r3, [pc, #76]	; (8000ebc <tft_init+0x16c>)
 8000e6e:	f8bd 2038 	ldrh.w	r2, [sp, #56]	; 0x38
 8000e72:	f8a3 9000 	strh.w	r9, [r3]
 8000e76:	4b12      	ldr	r3, [pc, #72]	; (8000ec0 <tft_init+0x170>)
 8000e78:	f8a3 8000 	strh.w	r8, [r3]
 8000e7c:	4b11      	ldr	r3, [pc, #68]	; (8000ec4 <tft_init+0x174>)
 8000e7e:	801f      	strh	r7, [r3, #0]
 8000e80:	4b11      	ldr	r3, [pc, #68]	; (8000ec8 <tft_init+0x178>)
 8000e82:	801a      	strh	r2, [r3, #0]
 8000e84:	f7ff ff42 	bl	8000d0c <tft_force_clear>
 8000e88:	b005      	add	sp, #20
 8000e8a:	e8bd 8ff0 	ldmia.w	sp!, {r4, r5, r6, r7, r8, r9, sl, fp, pc}
 8000e8e:	700b      	strb	r3, [r1, #0]
 8000e90:	e7a9      	b.n	8000de6 <tft_init+0x96>
 8000e92:	bf00      	nop
 8000e94:	20000000 	.word	0x20000000
 8000e98:	20005681 	.word	0x20005681
 8000e9c:	08003d37 	.word	0x08003d37
 8000ea0:	200056d5 	.word	0x200056d5
 8000ea4:	200056d4 	.word	0x200056d4
 8000ea8:	40020000 	.word	0x40020000
 8000eac:	40020400 	.word	0x40020400
 8000eb0:	20000031 	.word	0x20000031
 8000eb4:	20000680 	.word	0x20000680
 8000eb8:	08003da8 	.word	0x08003da8
 8000ebc:	20000032 	.word	0x20000032
 8000ec0:	20000036 	.word	0x20000036
 8000ec4:	20000038 	.word	0x20000038
 8000ec8:	20000034 	.word	0x20000034

08000ecc <SystemClock_Config>:
 8000ecc:	b510      	push	{r4, lr}
 8000ece:	b094      	sub	sp, #80	; 0x50
 8000ed0:	2210      	movs	r2, #16
 8000ed2:	2100      	movs	r1, #0
 8000ed4:	a80a      	add	r0, sp, #40	; 0x28
 8000ed6:	f002 f81b 	bl	8002f10 <memset>
 8000eda:	2214      	movs	r2, #20
 8000edc:	2100      	movs	r1, #0
 8000ede:	a803      	add	r0, sp, #12
 8000ee0:	f002 f816 	bl	8002f10 <memset>
 8000ee4:	4b1f      	ldr	r3, [pc, #124]	; (8000f64 <SystemClock_Config+0x98>)
 8000ee6:	2100      	movs	r1, #0
 8000ee8:	9101      	str	r1, [sp, #4]
 8000eea:	6c1a      	ldr	r2, [r3, #64]	; 0x40
 8000eec:	f042 5280 	orr.w	r2, r2, #268435456	; 0x10000000
 8000ef0:	641a      	str	r2, [r3, #64]	; 0x40
 8000ef2:	6c1b      	ldr	r3, [r3, #64]	; 0x40
 8000ef4:	f003 5380 	and.w	r3, r3, #268435456	; 0x10000000
 8000ef8:	9301      	str	r3, [sp, #4]
 8000efa:	9b01      	ldr	r3, [sp, #4]
 8000efc:	4b1a      	ldr	r3, [pc, #104]	; (8000f68 <SystemClock_Config+0x9c>)
 8000efe:	9102      	str	r1, [sp, #8]
 8000f00:	681a      	ldr	r2, [r3, #0]
 8000f02:	f442 4280 	orr.w	r2, r2, #16384	; 0x4000
 8000f06:	601a      	str	r2, [r3, #0]
 8000f08:	681b      	ldr	r3, [r3, #0]
 8000f0a:	f403 4380 	and.w	r3, r3, #16384	; 0x4000
 8000f0e:	9302      	str	r3, [sp, #8]
 8000f10:	9b02      	ldr	r3, [sp, #8]
 8000f12:	2101      	movs	r1, #1
 8000f14:	f44f 3380 	mov.w	r3, #65536	; 0x10000
 8000f18:	2402      	movs	r4, #2
 8000f1a:	e9cd 1308 	strd	r1, r3, [sp, #32]
 8000f1e:	f44f 0380 	mov.w	r3, #4194304	; 0x400000
 8000f22:	e9cd 430e 	strd	r4, r3, [sp, #56]	; 0x38
 8000f26:	22a8      	movs	r2, #168	; 0xa8
 8000f28:	2304      	movs	r3, #4
 8000f2a:	a808      	add	r0, sp, #32
 8000f2c:	e9cd 3210 	strd	r3, r2, [sp, #64]	; 0x40
 8000f30:	e9cd 4312 	strd	r4, r3, [sp, #72]	; 0x48
 8000f34:	f000 fe6a 	bl	8001c0c <HAL_RCC_OscConfig>
 8000f38:	b108      	cbz	r0, 8000f3e <SystemClock_Config+0x72>
 8000f3a:	b672      	cpsid	i
 8000f3c:	e7fe      	b.n	8000f3c <SystemClock_Config+0x70>
 8000f3e:	230f      	movs	r3, #15
 8000f40:	e9cd 3403 	strd	r3, r4, [sp, #12]
 8000f44:	9005      	str	r0, [sp, #20]
 8000f46:	f44f 52a0 	mov.w	r2, #5120	; 0x1400
 8000f4a:	f44f 5380 	mov.w	r3, #4096	; 0x1000
 8000f4e:	2105      	movs	r1, #5
 8000f50:	a803      	add	r0, sp, #12
 8000f52:	e9cd 2306 	strd	r2, r3, [sp, #24]
 8000f56:	f001 f833 	bl	8001fc0 <HAL_RCC_ClockConfig>
 8000f5a:	b108      	cbz	r0, 8000f60 <SystemClock_Config+0x94>
 8000f5c:	b672      	cpsid	i
 8000f5e:	e7fe      	b.n	8000f5e <SystemClock_Config+0x92>
 8000f60:	b014      	add	sp, #80	; 0x50
 8000f62:	bd10      	pop	{r4, pc}
 8000f64:	40023800 	.word	0x40023800
 8000f68:	40007000 	.word	0x40007000

08000f6c <main>:
 8000f6c:	b51f      	push	{r0, r1, r2, r3, r4, lr}
 8000f6e:	f000 fa93 	bl	8001498 <HAL_Init>
 8000f72:	2400      	movs	r4, #0
 8000f74:	f7ff ffaa 	bl	8000ecc <SystemClock_Config>
 8000f78:	f7ff fb78 	bl	800066c <MX_GPIO_Init>
 8000f7c:	f7ff faa0 	bl	80004c0 <MX_CAN1_Init>
 8000f80:	f7ff fabc 	bl	80004fc <MX_CAN2_Init>
 8000f84:	f000 f9ac 	bl	80012e0 <MX_USART1_UART_Init>
 8000f88:	f000 f9c6 	bl	8001318 <MX_USART2_UART_Init>
 8000f8c:	f7ff fb54 	bl	8000638 <MX_DMA_Init>
 8000f90:	f000 f954 	bl	800123c <MX_TIM5_Init>
 8000f94:	481b      	ldr	r0, [pc, #108]	; (8001004 <main+0x98>)
 8000f96:	9403      	str	r4, [sp, #12]
 8000f98:	2201      	movs	r2, #1
 8000f9a:	2180      	movs	r1, #128	; 0x80
 8000f9c:	f000 fe1a 	bl	8001bd4 <HAL_GPIO_WritePin>
 8000fa0:	4818      	ldr	r0, [pc, #96]	; (8001004 <main+0x98>)
 8000fa2:	2201      	movs	r2, #1
 8000fa4:	2140      	movs	r1, #64	; 0x40
 8000fa6:	f000 fe15 	bl	8001bd4 <HAL_GPIO_WritePin>
 8000faa:	4816      	ldr	r0, [pc, #88]	; (8001004 <main+0x98>)
 8000fac:	2201      	movs	r2, #1
 8000fae:	2120      	movs	r1, #32
 8000fb0:	f000 fe10 	bl	8001bd4 <HAL_GPIO_WritePin>
 8000fb4:	4813      	ldr	r0, [pc, #76]	; (8001004 <main+0x98>)
 8000fb6:	2201      	movs	r2, #1
 8000fb8:	2110      	movs	r1, #16
 8000fba:	f000 fe0b 	bl	8001bd4 <HAL_GPIO_WritePin>
 8000fbe:	f44f 63cc 	mov.w	r3, #1632	; 0x660
 8000fc2:	9300      	str	r3, [sp, #0]
 8000fc4:	4621      	mov	r1, r4
 8000fc6:	4620      	mov	r0, r4
 8000fc8:	f64f 73e0 	movw	r3, #65504	; 0xffe0
 8000fcc:	f64f 72ff 	movw	r2, #65535	; 0xffff
 8000fd0:	f7ff febe 	bl	8000d50 <tft_init>
 8000fd4:	f104 4480 	add.w	r4, r4, #1073741824	; 0x40000000
 8000fd8:	f504 3401 	add.w	r4, r4, #132096	; 0x20400
 8000fdc:	f000 f97c 	bl	80012d8 <gpio_classwork>
 8000fe0:	f000 f97b 	bl	80012da <tft_classwork>
 8000fe4:	f000 f97a 	bl	80012dc <tutorial2_homework>
 8000fe8:	f000 fa7c 	bl	80014e4 <HAL_GetTick>
 8000fec:	9b03      	ldr	r3, [sp, #12]
 8000fee:	1ac0      	subs	r0, r0, r3
 8000ff0:	2863      	cmp	r0, #99	; 0x63
 8000ff2:	d9f3      	bls.n	8000fdc <main+0x70>
 8000ff4:	2110      	movs	r1, #16
 8000ff6:	4620      	mov	r0, r4
 8000ff8:	f000 fdf1 	bl	8001bde <HAL_GPIO_TogglePin>
 8000ffc:	f000 fa72 	bl	80014e4 <HAL_GetTick>
 8001000:	9003      	str	r0, [sp, #12]
 8001002:	e7eb      	b.n	8000fdc <main+0x70>
 8001004:	40020400 	.word	0x40020400

08001008 <Error_Handler>:
 8001008:	b672      	cpsid	i
 800100a:	e7fe      	b.n	800100a <Error_Handler+0x2>

0800100c <MX_SPI1_Init>:
 800100c:	480e      	ldr	r0, [pc, #56]	; (8001048 <MX_SPI1_Init+0x3c>)
 800100e:	4a0f      	ldr	r2, [pc, #60]	; (800104c <MX_SPI1_Init+0x40>)
 8001010:	b508      	push	{r3, lr}
 8001012:	f44f 7382 	mov.w	r3, #260	; 0x104
 8001016:	e9c0 2300 	strd	r2, r3, [r0]
 800101a:	2300      	movs	r3, #0
 800101c:	f44f 7200 	mov.w	r2, #512	; 0x200
 8001020:	e9c0 3302 	strd	r3, r3, [r0, #8]
 8001024:	e9c0 3304 	strd	r3, r3, [r0, #16]
 8001028:	e9c0 2306 	strd	r2, r3, [r0, #24]
 800102c:	e9c0 3308 	strd	r3, r3, [r0, #32]
 8001030:	6283      	str	r3, [r0, #40]	; 0x28
 8001032:	230a      	movs	r3, #10
 8001034:	62c3      	str	r3, [r0, #44]	; 0x2c
 8001036:	f001 f8ff 	bl	8002238 <HAL_SPI_Init>
 800103a:	b118      	cbz	r0, 8001044 <MX_SPI1_Init+0x38>
 800103c:	e8bd 4008 	ldmia.w	sp!, {r3, lr}
 8001040:	f7ff bfe2 	b.w	8001008 <Error_Handler>
 8001044:	bd08      	pop	{r3, pc}
 8001046:	bf00      	nop
 8001048:	200056d8 	.word	0x200056d8
 800104c:	40013000 	.word	0x40013000

08001050 <HAL_SPI_MspInit>:
 8001050:	b5f0      	push	{r4, r5, r6, r7, lr}
 8001052:	4606      	mov	r6, r0
 8001054:	b089      	sub	sp, #36	; 0x24
 8001056:	2214      	movs	r2, #20
 8001058:	2100      	movs	r1, #0
 800105a:	a803      	add	r0, sp, #12
 800105c:	f001 ff58 	bl	8002f10 <memset>
 8001060:	6832      	ldr	r2, [r6, #0]
 8001062:	4b28      	ldr	r3, [pc, #160]	; (8001104 <HAL_SPI_MspInit+0xb4>)
 8001064:	429a      	cmp	r2, r3
 8001066:	d14a      	bne.n	80010fe <HAL_SPI_MspInit+0xae>
 8001068:	2500      	movs	r5, #0
 800106a:	f503 3384 	add.w	r3, r3, #67584	; 0x10800
 800106e:	9501      	str	r5, [sp, #4]
 8001070:	6c5a      	ldr	r2, [r3, #68]	; 0x44
 8001072:	4825      	ldr	r0, [pc, #148]	; (8001108 <HAL_SPI_MspInit+0xb8>)
 8001074:	4c25      	ldr	r4, [pc, #148]	; (800110c <HAL_SPI_MspInit+0xbc>)
 8001076:	f442 5280 	orr.w	r2, r2, #4096	; 0x1000
 800107a:	645a      	str	r2, [r3, #68]	; 0x44
 800107c:	6c5a      	ldr	r2, [r3, #68]	; 0x44
 800107e:	f402 5280 	and.w	r2, r2, #4096	; 0x1000
 8001082:	9201      	str	r2, [sp, #4]
 8001084:	9a01      	ldr	r2, [sp, #4]
 8001086:	9502      	str	r5, [sp, #8]
 8001088:	6b1a      	ldr	r2, [r3, #48]	; 0x30
 800108a:	f042 0201 	orr.w	r2, r2, #1
 800108e:	631a      	str	r2, [r3, #48]	; 0x30
 8001090:	6b1b      	ldr	r3, [r3, #48]	; 0x30
 8001092:	9505      	str	r5, [sp, #20]
 8001094:	f003 0301 	and.w	r3, r3, #1
 8001098:	9302      	str	r3, [sp, #8]
 800109a:	9b02      	ldr	r3, [sp, #8]
 800109c:	22a0      	movs	r2, #160	; 0xa0
 800109e:	2302      	movs	r3, #2
 80010a0:	e9cd 2303 	strd	r2, r3, [sp, #12]
 80010a4:	2703      	movs	r7, #3
 80010a6:	2305      	movs	r3, #5
 80010a8:	a903      	add	r1, sp, #12
 80010aa:	e9cd 7306 	strd	r7, r3, [sp, #24]
 80010ae:	f000 fcb7 	bl	8001a20 <HAL_GPIO_Init>
 80010b2:	4917      	ldr	r1, [pc, #92]	; (8001110 <HAL_SPI_MspInit+0xc0>)
 80010b4:	6225      	str	r5, [r4, #32]
 80010b6:	f04f 63c0 	mov.w	r3, #100663296	; 0x6000000
 80010ba:	e9c4 1300 	strd	r1, r3, [r4]
 80010be:	2340      	movs	r3, #64	; 0x40
 80010c0:	e9c4 3502 	strd	r3, r5, [r4, #8]
 80010c4:	f44f 6380 	mov.w	r3, #1024	; 0x400
 80010c8:	e9c4 3504 	strd	r3, r5, [r4, #16]
 80010cc:	2304      	movs	r3, #4
 80010ce:	e9c4 3709 	strd	r3, r7, [r4, #36]	; 0x24
 80010d2:	4620      	mov	r0, r4
 80010d4:	f04f 73c0 	mov.w	r3, #25165824	; 0x1800000
 80010d8:	e9c4 5506 	strd	r5, r5, [r4, #24]
 80010dc:	e9c4 350b 	strd	r3, r5, [r4, #44]	; 0x2c
 80010e0:	f000 fb14 	bl	800170c <HAL_DMA_Init>
 80010e4:	b108      	cbz	r0, 80010ea <HAL_SPI_MspInit+0x9a>
 80010e6:	f7ff ff8f 	bl	8001008 <Error_Handler>
 80010ea:	2200      	movs	r2, #0
 80010ec:	2023      	movs	r0, #35	; 0x23
 80010ee:	64b4      	str	r4, [r6, #72]	; 0x48
 80010f0:	4611      	mov	r1, r2
 80010f2:	63a6      	str	r6, [r4, #56]	; 0x38
 80010f4:	f000 fa9e 	bl	8001634 <HAL_NVIC_SetPriority>
 80010f8:	2023      	movs	r0, #35	; 0x23
 80010fa:	f000 facd 	bl	8001698 <HAL_NVIC_EnableIRQ>
 80010fe:	b009      	add	sp, #36	; 0x24
 8001100:	bdf0      	pop	{r4, r5, r6, r7, pc}
 8001102:	bf00      	nop
 8001104:	40013000 	.word	0x40013000
 8001108:	40020000 	.word	0x40020000
 800110c:	20005730 	.word	0x20005730
 8001110:	40026458 	.word	0x40026458

08001114 <HAL_MspInit>:
 8001114:	b082      	sub	sp, #8
 8001116:	4b0c      	ldr	r3, [pc, #48]	; (8001148 <HAL_MspInit+0x34>)
 8001118:	2100      	movs	r1, #0
 800111a:	9100      	str	r1, [sp, #0]
 800111c:	6c5a      	ldr	r2, [r3, #68]	; 0x44
 800111e:	f442 4280 	orr.w	r2, r2, #16384	; 0x4000
 8001122:	645a      	str	r2, [r3, #68]	; 0x44
 8001124:	6c5a      	ldr	r2, [r3, #68]	; 0x44
 8001126:	f402 4280 	and.w	r2, r2, #16384	; 0x4000
 800112a:	9200      	str	r2, [sp, #0]
 800112c:	9a00      	ldr	r2, [sp, #0]
 800112e:	9101      	str	r1, [sp, #4]
 8001130:	6c1a      	ldr	r2, [r3, #64]	; 0x40
 8001132:	f042 5280 	orr.w	r2, r2, #268435456	; 0x10000000
 8001136:	641a      	str	r2, [r3, #64]	; 0x40
 8001138:	6c1b      	ldr	r3, [r3, #64]	; 0x40
 800113a:	f003 5380 	and.w	r3, r3, #268435456	; 0x10000000
 800113e:	9301      	str	r3, [sp, #4]
 8001140:	9b01      	ldr	r3, [sp, #4]
 8001142:	b002      	add	sp, #8
 8001144:	4770      	bx	lr
 8001146:	bf00      	nop
 8001148:	40023800 	.word	0x40023800

0800114c <NMI_Handler>:
 800114c:	e7fe      	b.n	800114c <NMI_Handler>

0800114e <HardFault_Handler>:
 800114e:	e7fe      	b.n	800114e <HardFault_Handler>

08001150 <MemManage_Handler>:
 8001150:	e7fe      	b.n	8001150 <MemManage_Handler>

08001152 <BusFault_Handler>:
 8001152:	e7fe      	b.n	8001152 <BusFault_Handler>

08001154 <UsageFault_Handler>:
 8001154:	e7fe      	b.n	8001154 <UsageFault_Handler>

08001156 <SVC_Handler>:
 8001156:	4770      	bx	lr

08001158 <DebugMon_Handler>:
 8001158:	4770      	bx	lr

0800115a <PendSV_Handler>:
 800115a:	4770      	bx	lr

0800115c <SysTick_Handler>:
 800115c:	f000 b9b6 	b.w	80014cc <HAL_IncTick>

08001160 <SPI1_IRQHandler>:
 8001160:	4801      	ldr	r0, [pc, #4]	; (8001168 <SPI1_IRQHandler+0x8>)
 8001162:	f001 ba25 	b.w	80025b0 <HAL_SPI_IRQHandler>
 8001166:	bf00      	nop
 8001168:	200056d8 	.word	0x200056d8

0800116c <EXTI15_10_IRQHandler>:
 800116c:	f44f 4080 	mov.w	r0, #16384	; 0x4000
 8001170:	f000 bd40 	b.w	8001bf4 <HAL_GPIO_EXTI_IRQHandler>

08001174 <TIM5_IRQHandler>:
 8001174:	4801      	ldr	r0, [pc, #4]	; (800117c <TIM5_IRQHandler+0x8>)
 8001176:	f001 bb41 	b.w	80027fc <HAL_TIM_IRQHandler>
 800117a:	bf00      	nop
 800117c:	20005790 	.word	0x20005790

08001180 <DMA2_Stream3_IRQHandler>:
 8001180:	4801      	ldr	r0, [pc, #4]	; (8001188 <DMA2_Stream3_IRQHandler+0x8>)
 8001182:	f000 bb8f 	b.w	80018a4 <HAL_DMA_IRQHandler>
 8001186:	bf00      	nop
 8001188:	20005730 	.word	0x20005730

0800118c <SystemInit>:
 800118c:	4a03      	ldr	r2, [pc, #12]	; (800119c <SystemInit+0x10>)
 800118e:	f8d2 3088 	ldr.w	r3, [r2, #136]	; 0x88
 8001192:	f443 0370 	orr.w	r3, r3, #15728640	; 0xf00000
 8001196:	f8c2 3088 	str.w	r3, [r2, #136]	; 0x88
 800119a:	4770      	bx	lr
 800119c:	e000ed00 	.word	0xe000ed00

080011a0 <HAL_TIM_Base_MspInit>:
 80011a0:	b507      	push	{r0, r1, r2, lr}
 80011a2:	4b0f      	ldr	r3, [pc, #60]	; (80011e0 <HAL_TIM_Base_MspInit+0x40>)
 80011a4:	6802      	ldr	r2, [r0, #0]
 80011a6:	429a      	cmp	r2, r3
 80011a8:	d116      	bne.n	80011d8 <HAL_TIM_Base_MspInit+0x38>
 80011aa:	2200      	movs	r2, #0
 80011ac:	f503 330b 	add.w	r3, r3, #142336	; 0x22c00
 80011b0:	9201      	str	r2, [sp, #4]
 80011b2:	6c19      	ldr	r1, [r3, #64]	; 0x40
 80011b4:	f041 0108 	orr.w	r1, r1, #8
 80011b8:	6419      	str	r1, [r3, #64]	; 0x40
 80011ba:	6c1b      	ldr	r3, [r3, #64]	; 0x40
 80011bc:	f003 0308 	and.w	r3, r3, #8
 80011c0:	9301      	str	r3, [sp, #4]
 80011c2:	4611      	mov	r1, r2
 80011c4:	2032      	movs	r0, #50	; 0x32
 80011c6:	9b01      	ldr	r3, [sp, #4]
 80011c8:	f000 fa34 	bl	8001634 <HAL_NVIC_SetPriority>
 80011cc:	2032      	movs	r0, #50	; 0x32
 80011ce:	b003      	add	sp, #12
 80011d0:	f85d eb04 	ldr.w	lr, [sp], #4
 80011d4:	f000 ba60 	b.w	8001698 <HAL_NVIC_EnableIRQ>
 80011d8:	b003      	add	sp, #12
 80011da:	f85d fb04 	ldr.w	pc, [sp], #4
 80011de:	bf00      	nop
 80011e0:	40000c00 	.word	0x40000c00

080011e4 <HAL_TIM_MspPostInit>:
 80011e4:	b510      	push	{r4, lr}
 80011e6:	4604      	mov	r4, r0
 80011e8:	b086      	sub	sp, #24
 80011ea:	2214      	movs	r2, #20
 80011ec:	2100      	movs	r1, #0
 80011ee:	a801      	add	r0, sp, #4
 80011f0:	f001 fe8e 	bl	8002f10 <memset>
 80011f4:	6822      	ldr	r2, [r4, #0]
 80011f6:	4b0e      	ldr	r3, [pc, #56]	; (8001230 <HAL_TIM_MspPostInit+0x4c>)
 80011f8:	429a      	cmp	r2, r3
 80011fa:	d116      	bne.n	800122a <HAL_TIM_MspPostInit+0x46>
 80011fc:	4a0d      	ldr	r2, [pc, #52]	; (8001234 <HAL_TIM_MspPostInit+0x50>)
 80011fe:	480e      	ldr	r0, [pc, #56]	; (8001238 <HAL_TIM_MspPostInit+0x54>)
 8001200:	2300      	movs	r3, #0
 8001202:	9300      	str	r3, [sp, #0]
 8001204:	6b11      	ldr	r1, [r2, #48]	; 0x30
 8001206:	f041 0101 	orr.w	r1, r1, #1
 800120a:	6311      	str	r1, [r2, #48]	; 0x30
 800120c:	6b12      	ldr	r2, [r2, #48]	; 0x30
 800120e:	f002 0201 	and.w	r2, r2, #1
 8001212:	9200      	str	r2, [sp, #0]
 8001214:	2101      	movs	r1, #1
 8001216:	9a00      	ldr	r2, [sp, #0]
 8001218:	2202      	movs	r2, #2
 800121a:	e9cd 1201 	strd	r1, r2, [sp, #4]
 800121e:	a901      	add	r1, sp, #4
 8001220:	e9cd 3303 	strd	r3, r3, [sp, #12]
 8001224:	9205      	str	r2, [sp, #20]
 8001226:	f000 fbfb 	bl	8001a20 <HAL_GPIO_Init>
 800122a:	b006      	add	sp, #24
 800122c:	bd10      	pop	{r4, pc}
 800122e:	bf00      	nop
 8001230:	40000c00 	.word	0x40000c00
 8001234:	40023800 	.word	0x40023800
 8001238:	40020000 	.word	0x40020000

0800123c <MX_TIM5_Init>:
 800123c:	b510      	push	{r4, lr}
 800123e:	b08e      	sub	sp, #56	; 0x38
 8001240:	2210      	movs	r2, #16
 8001242:	2100      	movs	r1, #0
 8001244:	a803      	add	r0, sp, #12
 8001246:	f001 fe63 	bl	8002f10 <memset>
 800124a:	2400      	movs	r4, #0
 800124c:	221c      	movs	r2, #28
 800124e:	4621      	mov	r1, r4
 8001250:	eb0d 0002 	add.w	r0, sp, r2
 8001254:	e9cd 4401 	strd	r4, r4, [sp, #4]
 8001258:	f001 fe5a 	bl	8002f10 <memset>
 800125c:	481c      	ldr	r0, [pc, #112]	; (80012d0 <MX_TIM5_Init+0x94>)
 800125e:	4b1d      	ldr	r3, [pc, #116]	; (80012d4 <MX_TIM5_Init+0x98>)
 8001260:	6104      	str	r4, [r0, #16]
 8001262:	e9c0 3400 	strd	r3, r4, [r0]
 8001266:	e9c0 4402 	strd	r4, r4, [r0, #8]
 800126a:	6184      	str	r4, [r0, #24]
 800126c:	f001 fbce 	bl	8002a0c <HAL_TIM_Base_Init>
 8001270:	b108      	cbz	r0, 8001276 <MX_TIM5_Init+0x3a>
 8001272:	f7ff fec9 	bl	8001008 <Error_Handler>
 8001276:	f44f 5380 	mov.w	r3, #4096	; 0x1000
 800127a:	4815      	ldr	r0, [pc, #84]	; (80012d0 <MX_TIM5_Init+0x94>)
 800127c:	9303      	str	r3, [sp, #12]
 800127e:	a903      	add	r1, sp, #12
 8001280:	f001 fcba 	bl	8002bf8 <HAL_TIM_ConfigClockSource>
 8001284:	b108      	cbz	r0, 800128a <MX_TIM5_Init+0x4e>
 8001286:	f7ff febf 	bl	8001008 <Error_Handler>
 800128a:	4811      	ldr	r0, [pc, #68]	; (80012d0 <MX_TIM5_Init+0x94>)
 800128c:	f001 fbea 	bl	8002a64 <HAL_TIM_PWM_Init>
 8001290:	b108      	cbz	r0, 8001296 <MX_TIM5_Init+0x5a>
 8001292:	f7ff feb9 	bl	8001008 <Error_Handler>
 8001296:	2400      	movs	r4, #0
 8001298:	480d      	ldr	r0, [pc, #52]	; (80012d0 <MX_TIM5_Init+0x94>)
 800129a:	a901      	add	r1, sp, #4
 800129c:	e9cd 4401 	strd	r4, r4, [sp, #4]
 80012a0:	f001 fd46 	bl	8002d30 <HAL_TIMEx_MasterConfigSynchronization>
 80012a4:	b108      	cbz	r0, 80012aa <MX_TIM5_Init+0x6e>
 80012a6:	f7ff feaf 	bl	8001008 <Error_Handler>
 80012aa:	2360      	movs	r3, #96	; 0x60
 80012ac:	4808      	ldr	r0, [pc, #32]	; (80012d0 <MX_TIM5_Init+0x94>)
 80012ae:	9409      	str	r4, [sp, #36]	; 0x24
 80012b0:	2200      	movs	r2, #0
 80012b2:	a907      	add	r1, sp, #28
 80012b4:	e9cd 3407 	strd	r3, r4, [sp, #28]
 80012b8:	940b      	str	r4, [sp, #44]	; 0x2c
 80012ba:	f001 fc35 	bl	8002b28 <HAL_TIM_PWM_ConfigChannel>
 80012be:	b108      	cbz	r0, 80012c4 <MX_TIM5_Init+0x88>
 80012c0:	f7ff fea2 	bl	8001008 <Error_Handler>
 80012c4:	4802      	ldr	r0, [pc, #8]	; (80012d0 <MX_TIM5_Init+0x94>)
 80012c6:	f7ff ff8d 	bl	80011e4 <HAL_TIM_MspPostInit>
 80012ca:	b00e      	add	sp, #56	; 0x38
 80012cc:	bd10      	pop	{r4, pc}
 80012ce:	bf00      	nop
 80012d0:	20005790 	.word	0x20005790
 80012d4:	40000c00 	.word	0x40000c00

080012d8 <gpio_classwork>:
 80012d8:	4770      	bx	lr

080012da <tft_classwork>:
 80012da:	4770      	bx	lr

080012dc <tutorial2_homework>:
 80012dc:	4770      	bx	lr
	...

080012e0 <MX_USART1_UART_Init>:
 80012e0:	480b      	ldr	r0, [pc, #44]	; (8001310 <MX_USART1_UART_Init+0x30>)
 80012e2:	4a0c      	ldr	r2, [pc, #48]	; (8001314 <MX_USART1_UART_Init+0x34>)
 80012e4:	b508      	push	{r3, lr}
 80012e6:	f44f 33e1 	mov.w	r3, #115200	; 0x1c200
 80012ea:	e9c0 2300 	strd	r2, r3, [r0]
 80012ee:	2300      	movs	r3, #0
 80012f0:	220c      	movs	r2, #12
 80012f2:	e9c0 3302 	strd	r3, r3, [r0, #8]
 80012f6:	e9c0 2305 	strd	r2, r3, [r0, #20]
 80012fa:	6103      	str	r3, [r0, #16]
 80012fc:	61c3      	str	r3, [r0, #28]
 80012fe:	f001 fdb5 	bl	8002e6c <HAL_UART_Init>
 8001302:	b118      	cbz	r0, 800130c <MX_USART1_UART_Init+0x2c>
 8001304:	e8bd 4008 	ldmia.w	sp!, {r3, lr}
 8001308:	f7ff be7e 	b.w	8001008 <Error_Handler>
 800130c:	bd08      	pop	{r3, pc}
 800130e:	bf00      	nop
 8001310:	200057d8 	.word	0x200057d8
 8001314:	40011000 	.word	0x40011000

08001318 <MX_USART2_UART_Init>:
 8001318:	480b      	ldr	r0, [pc, #44]	; (8001348 <MX_USART2_UART_Init+0x30>)
 800131a:	4a0c      	ldr	r2, [pc, #48]	; (800134c <MX_USART2_UART_Init+0x34>)
 800131c:	b508      	push	{r3, lr}
 800131e:	f44f 33e1 	mov.w	r3, #115200	; 0x1c200
 8001322:	e9c0 2300 	strd	r2, r3, [r0]
 8001326:	2300      	movs	r3, #0
 8001328:	220c      	movs	r2, #12
 800132a:	e9c0 3302 	strd	r3, r3, [r0, #8]
 800132e:	e9c0 2305 	strd	r2, r3, [r0, #20]
 8001332:	6103      	str	r3, [r0, #16]
 8001334:	61c3      	str	r3, [r0, #28]
 8001336:	f001 fd99 	bl	8002e6c <HAL_UART_Init>
 800133a:	b118      	cbz	r0, 8001344 <MX_USART2_UART_Init+0x2c>
 800133c:	e8bd 4008 	ldmia.w	sp!, {r3, lr}
 8001340:	f7ff be62 	b.w	8001008 <Error_Handler>
 8001344:	bd08      	pop	{r3, pc}
 8001346:	bf00      	nop
 8001348:	2000581c 	.word	0x2000581c
 800134c:	40004400 	.word	0x40004400

08001350 <HAL_UART_MspInit>:
 8001350:	b510      	push	{r4, lr}
 8001352:	2214      	movs	r2, #20
 8001354:	b08a      	sub	sp, #40	; 0x28
 8001356:	4604      	mov	r4, r0
 8001358:	2100      	movs	r1, #0
 800135a:	eb0d 0002 	add.w	r0, sp, r2
 800135e:	f001 fdd7 	bl	8002f10 <memset>
 8001362:	6823      	ldr	r3, [r4, #0]
 8001364:	4a21      	ldr	r2, [pc, #132]	; (80013ec <HAL_UART_MspInit+0x9c>)
 8001366:	4293      	cmp	r3, r2
 8001368:	d125      	bne.n	80013b6 <HAL_UART_MspInit+0x66>
 800136a:	4b21      	ldr	r3, [pc, #132]	; (80013f0 <HAL_UART_MspInit+0xa0>)
 800136c:	2200      	movs	r2, #0
 800136e:	9201      	str	r2, [sp, #4]
 8001370:	6c59      	ldr	r1, [r3, #68]	; 0x44
 8001372:	f041 0110 	orr.w	r1, r1, #16
 8001376:	6459      	str	r1, [r3, #68]	; 0x44
 8001378:	6c59      	ldr	r1, [r3, #68]	; 0x44
 800137a:	f001 0110 	and.w	r1, r1, #16
 800137e:	9101      	str	r1, [sp, #4]
 8001380:	9901      	ldr	r1, [sp, #4]
 8001382:	9202      	str	r2, [sp, #8]
 8001384:	6b19      	ldr	r1, [r3, #48]	; 0x30
 8001386:	f041 0101 	orr.w	r1, r1, #1
 800138a:	6319      	str	r1, [r3, #48]	; 0x30
 800138c:	6b1b      	ldr	r3, [r3, #48]	; 0x30
 800138e:	f003 0301 	and.w	r3, r3, #1
 8001392:	9302      	str	r3, [sp, #8]
 8001394:	9b02      	ldr	r3, [sp, #8]
 8001396:	f44f 63c0 	mov.w	r3, #1536	; 0x600
 800139a:	9305      	str	r3, [sp, #20]
 800139c:	2302      	movs	r3, #2
 800139e:	e9cd 3206 	strd	r3, r2, [sp, #24]
 80013a2:	4814      	ldr	r0, [pc, #80]	; (80013f4 <HAL_UART_MspInit+0xa4>)
 80013a4:	2203      	movs	r2, #3
 80013a6:	2307      	movs	r3, #7
 80013a8:	a905      	add	r1, sp, #20
 80013aa:	e9cd 2308 	strd	r2, r3, [sp, #32]
 80013ae:	f000 fb37 	bl	8001a20 <HAL_GPIO_Init>
 80013b2:	b00a      	add	sp, #40	; 0x28
 80013b4:	bd10      	pop	{r4, pc}
 80013b6:	4a10      	ldr	r2, [pc, #64]	; (80013f8 <HAL_UART_MspInit+0xa8>)
 80013b8:	4293      	cmp	r3, r2
 80013ba:	d1fa      	bne.n	80013b2 <HAL_UART_MspInit+0x62>
 80013bc:	4b0c      	ldr	r3, [pc, #48]	; (80013f0 <HAL_UART_MspInit+0xa0>)
 80013be:	2200      	movs	r2, #0
 80013c0:	9203      	str	r2, [sp, #12]
 80013c2:	6c19      	ldr	r1, [r3, #64]	; 0x40
 80013c4:	f441 3100 	orr.w	r1, r1, #131072	; 0x20000
 80013c8:	6419      	str	r1, [r3, #64]	; 0x40
 80013ca:	6c19      	ldr	r1, [r3, #64]	; 0x40
 80013cc:	f401 3100 	and.w	r1, r1, #131072	; 0x20000
 80013d0:	9103      	str	r1, [sp, #12]
 80013d2:	9903      	ldr	r1, [sp, #12]
 80013d4:	9204      	str	r2, [sp, #16]
 80013d6:	6b19      	ldr	r1, [r3, #48]	; 0x30
 80013d8:	f041 0101 	orr.w	r1, r1, #1
 80013dc:	6319      	str	r1, [r3, #48]	; 0x30
 80013de:	6b1b      	ldr	r3, [r3, #48]	; 0x30
 80013e0:	f003 0301 	and.w	r3, r3, #1
 80013e4:	9304      	str	r3, [sp, #16]
 80013e6:	9b04      	ldr	r3, [sp, #16]
 80013e8:	230c      	movs	r3, #12
 80013ea:	e7d6      	b.n	800139a <HAL_UART_MspInit+0x4a>
 80013ec:	40011000 	.word	0x40011000
 80013f0:	40023800 	.word	0x40023800
 80013f4:	40020000 	.word	0x40020000
 80013f8:	40004400 	.word	0x40004400

080013fc <Reset_Handler>:
 80013fc:	f8df d034 	ldr.w	sp, [pc, #52]	; 8001434 <LoopFillZerobss+0x12>
 8001400:	480d      	ldr	r0, [pc, #52]	; (8001438 <LoopFillZerobss+0x16>)
 8001402:	490e      	ldr	r1, [pc, #56]	; (800143c <LoopFillZerobss+0x1a>)
 8001404:	4a0e      	ldr	r2, [pc, #56]	; (8001440 <LoopFillZerobss+0x1e>)
 8001406:	2300      	movs	r3, #0
 8001408:	e002      	b.n	8001410 <LoopCopyDataInit>

0800140a <CopyDataInit>:
 800140a:	58d4      	ldr	r4, [r2, r3]
 800140c:	50c4      	str	r4, [r0, r3]
 800140e:	3304      	adds	r3, #4

08001410 <LoopCopyDataInit>:
 8001410:	18c4      	adds	r4, r0, r3
 8001412:	428c      	cmp	r4, r1
 8001414:	d3f9      	bcc.n	800140a <CopyDataInit>
 8001416:	4a0b      	ldr	r2, [pc, #44]	; (8001444 <LoopFillZerobss+0x22>)
 8001418:	4c0b      	ldr	r4, [pc, #44]	; (8001448 <LoopFillZerobss+0x26>)
 800141a:	2300      	movs	r3, #0
 800141c:	e001      	b.n	8001422 <LoopFillZerobss>

0800141e <FillZerobss>:
 800141e:	6013      	str	r3, [r2, #0]
 8001420:	3204      	adds	r2, #4

08001422 <LoopFillZerobss>:
 8001422:	42a2      	cmp	r2, r4
 8001424:	d3fb      	bcc.n	800141e <FillZerobss>
 8001426:	f7ff feb1 	bl	800118c <SystemInit>
 800142a:	f001 fd4d 	bl	8002ec8 <__libc_init_array>
 800142e:	f7ff fd9d 	bl	8000f6c <main>
 8001432:	4770      	bx	lr
 8001434:	20020000 	.word	0x20020000
 8001438:	20000000 	.word	0x20000000
 800143c:	20000010 	.word	0x20000010
 8001440:	08003ddc 	.word	0x08003ddc
 8001444:	20000010 	.word	0x20000010
 8001448:	20005864 	.word	0x20005864

0800144c <ADC_IRQHandler>:
 800144c:	e7fe      	b.n	800144c <ADC_IRQHandler>
	...

08001450 <HAL_InitTick>:
 8001450:	b538      	push	{r3, r4, r5, lr}
 8001452:	4a0e      	ldr	r2, [pc, #56]	; (800148c <HAL_InitTick+0x3c>)
 8001454:	4b0e      	ldr	r3, [pc, #56]	; (8001490 <HAL_InitTick+0x40>)
 8001456:	4605      	mov	r5, r0
 8001458:	7818      	ldrb	r0, [r3, #0]
 800145a:	f44f 737a 	mov.w	r3, #1000	; 0x3e8
 800145e:	fbb3 f3f0 	udiv	r3, r3, r0
 8001462:	6810      	ldr	r0, [r2, #0]
 8001464:	fbb0 f0f3 	udiv	r0, r0, r3
 8001468:	f000 f924 	bl	80016b4 <HAL_SYSTICK_Config>
 800146c:	4604      	mov	r4, r0
 800146e:	b958      	cbnz	r0, 8001488 <HAL_InitTick+0x38>
 8001470:	2d0f      	cmp	r5, #15
 8001472:	d809      	bhi.n	8001488 <HAL_InitTick+0x38>
 8001474:	4602      	mov	r2, r0
 8001476:	4629      	mov	r1, r5
 8001478:	f04f 30ff 	mov.w	r0, #4294967295
 800147c:	f000 f8da 	bl	8001634 <HAL_NVIC_SetPriority>
 8001480:	4b04      	ldr	r3, [pc, #16]	; (8001494 <HAL_InitTick+0x44>)
 8001482:	4620      	mov	r0, r4
 8001484:	601d      	str	r5, [r3, #0]
 8001486:	bd38      	pop	{r3, r4, r5, pc}
 8001488:	2001      	movs	r0, #1
 800148a:	e7fc      	b.n	8001486 <HAL_InitTick+0x36>
 800148c:	20000004 	.word	0x20000004
 8001490:	20000008 	.word	0x20000008
 8001494:	2000000c 	.word	0x2000000c

08001498 <HAL_Init>:
 8001498:	b508      	push	{r3, lr}
 800149a:	4b0b      	ldr	r3, [pc, #44]	; (80014c8 <HAL_Init+0x30>)
 800149c:	681a      	ldr	r2, [r3, #0]
 800149e:	f442 7200 	orr.w	r2, r2, #512	; 0x200
 80014a2:	601a      	str	r2, [r3, #0]
 80014a4:	681a      	ldr	r2, [r3, #0]
 80014a6:	f442 6280 	orr.w	r2, r2, #1024	; 0x400
 80014aa:	601a      	str	r2, [r3, #0]
 80014ac:	681a      	ldr	r2, [r3, #0]
 80014ae:	f442 7280 	orr.w	r2, r2, #256	; 0x100
 80014b2:	601a      	str	r2, [r3, #0]
 80014b4:	2003      	movs	r0, #3
 80014b6:	f000 f8ab 	bl	8001610 <HAL_NVIC_SetPriorityGrouping>
 80014ba:	200f      	movs	r0, #15
 80014bc:	f7ff ffc8 	bl	8001450 <HAL_InitTick>
 80014c0:	f7ff fe28 	bl	8001114 <HAL_MspInit>
 80014c4:	2000      	movs	r0, #0
 80014c6:	bd08      	pop	{r3, pc}
 80014c8:	40023c00 	.word	0x40023c00

080014cc <HAL_IncTick>:
 80014cc:	4a03      	ldr	r2, [pc, #12]	; (80014dc <HAL_IncTick+0x10>)
 80014ce:	4b04      	ldr	r3, [pc, #16]	; (80014e0 <HAL_IncTick+0x14>)
 80014d0:	6811      	ldr	r1, [r2, #0]
 80014d2:	781b      	ldrb	r3, [r3, #0]
 80014d4:	440b      	add	r3, r1
 80014d6:	6013      	str	r3, [r2, #0]
 80014d8:	4770      	bx	lr
 80014da:	bf00      	nop
 80014dc:	20005860 	.word	0x20005860
 80014e0:	20000008 	.word	0x20000008

080014e4 <HAL_GetTick>:
 80014e4:	4b01      	ldr	r3, [pc, #4]	; (80014ec <HAL_GetTick+0x8>)
 80014e6:	6818      	ldr	r0, [r3, #0]
 80014e8:	4770      	bx	lr
 80014ea:	bf00      	nop
 80014ec:	20005860 	.word	0x20005860

080014f0 <HAL_Delay>:
 80014f0:	b538      	push	{r3, r4, r5, lr}
 80014f2:	4604      	mov	r4, r0
 80014f4:	f7ff fff6 	bl	80014e4 <HAL_GetTick>
 80014f8:	1c63      	adds	r3, r4, #1
 80014fa:	bf1c      	itt	ne
 80014fc:	4b05      	ldrne	r3, [pc, #20]	; (8001514 <HAL_Delay+0x24>)
 80014fe:	781b      	ldrbne	r3, [r3, #0]
 8001500:	4605      	mov	r5, r0
 8001502:	bf18      	it	ne
 8001504:	18e4      	addne	r4, r4, r3
 8001506:	f7ff ffed 	bl	80014e4 <HAL_GetTick>
 800150a:	1b43      	subs	r3, r0, r5
 800150c:	42a3      	cmp	r3, r4
 800150e:	d3fa      	bcc.n	8001506 <HAL_Delay+0x16>
 8001510:	bd38      	pop	{r3, r4, r5, pc}
 8001512:	bf00      	nop
 8001514:	20000008 	.word	0x20000008

08001518 <HAL_CAN_Init>:
 8001518:	b538      	push	{r3, r4, r5, lr}
 800151a:	4604      	mov	r4, r0
 800151c:	2800      	cmp	r0, #0
 800151e:	d06e      	beq.n	80015fe <HAL_CAN_Init+0xe6>
 8001520:	f890 3020 	ldrb.w	r3, [r0, #32]
 8001524:	b90b      	cbnz	r3, 800152a <HAL_CAN_Init+0x12>
 8001526:	f7ff f807 	bl	8000538 <HAL_CAN_MspInit>
 800152a:	6822      	ldr	r2, [r4, #0]
 800152c:	6813      	ldr	r3, [r2, #0]
 800152e:	f043 0301 	orr.w	r3, r3, #1
 8001532:	6013      	str	r3, [r2, #0]
 8001534:	f7ff ffd6 	bl	80014e4 <HAL_GetTick>
 8001538:	4605      	mov	r5, r0
 800153a:	6823      	ldr	r3, [r4, #0]
 800153c:	685a      	ldr	r2, [r3, #4]
 800153e:	07d1      	lsls	r1, r2, #31
 8001540:	d551      	bpl.n	80015e6 <HAL_CAN_Init+0xce>
 8001542:	681a      	ldr	r2, [r3, #0]
 8001544:	f022 0202 	bic.w	r2, r2, #2
 8001548:	601a      	str	r2, [r3, #0]
 800154a:	f7ff ffcb 	bl	80014e4 <HAL_GetTick>
 800154e:	4605      	mov	r5, r0
 8001550:	6823      	ldr	r3, [r4, #0]
 8001552:	685a      	ldr	r2, [r3, #4]
 8001554:	0792      	lsls	r2, r2, #30
 8001556:	d454      	bmi.n	8001602 <HAL_CAN_Init+0xea>
 8001558:	7e22      	ldrb	r2, [r4, #24]
 800155a:	2a01      	cmp	r2, #1
 800155c:	681a      	ldr	r2, [r3, #0]
 800155e:	bf0c      	ite	eq
 8001560:	f042 0280 	orreq.w	r2, r2, #128	; 0x80
 8001564:	f022 0280 	bicne.w	r2, r2, #128	; 0x80
 8001568:	601a      	str	r2, [r3, #0]
 800156a:	7e62      	ldrb	r2, [r4, #25]
 800156c:	2a01      	cmp	r2, #1
 800156e:	681a      	ldr	r2, [r3, #0]
 8001570:	bf0c      	ite	eq
 8001572:	f042 0240 	orreq.w	r2, r2, #64	; 0x40
 8001576:	f022 0240 	bicne.w	r2, r2, #64	; 0x40
 800157a:	601a      	str	r2, [r3, #0]
 800157c:	7ea2      	ldrb	r2, [r4, #26]
 800157e:	2a01      	cmp	r2, #1
 8001580:	681a      	ldr	r2, [r3, #0]
 8001582:	bf0c      	ite	eq
 8001584:	f042 0220 	orreq.w	r2, r2, #32
 8001588:	f022 0220 	bicne.w	r2, r2, #32
 800158c:	601a      	str	r2, [r3, #0]
 800158e:	7ee2      	ldrb	r2, [r4, #27]
 8001590:	2a01      	cmp	r2, #1
 8001592:	681a      	ldr	r2, [r3, #0]
 8001594:	bf0c      	ite	eq
 8001596:	f022 0210 	biceq.w	r2, r2, #16
 800159a:	f042 0210 	orrne.w	r2, r2, #16
 800159e:	601a      	str	r2, [r3, #0]
 80015a0:	7f22      	ldrb	r2, [r4, #28]
 80015a2:	2a01      	cmp	r2, #1
 80015a4:	681a      	ldr	r2, [r3, #0]
 80015a6:	bf0c      	ite	eq
 80015a8:	f042 0208 	orreq.w	r2, r2, #8
 80015ac:	f022 0208 	bicne.w	r2, r2, #8
 80015b0:	601a      	str	r2, [r3, #0]
 80015b2:	7f62      	ldrb	r2, [r4, #29]
 80015b4:	2a01      	cmp	r2, #1
 80015b6:	681a      	ldr	r2, [r3, #0]
 80015b8:	bf0c      	ite	eq
 80015ba:	f042 0204 	orreq.w	r2, r2, #4
 80015be:	f022 0204 	bicne.w	r2, r2, #4
 80015c2:	601a      	str	r2, [r3, #0]
 80015c4:	e9d4 2102 	ldrd	r2, r1, [r4, #8]
 80015c8:	430a      	orrs	r2, r1
 80015ca:	6921      	ldr	r1, [r4, #16]
 80015cc:	430a      	orrs	r2, r1
 80015ce:	6961      	ldr	r1, [r4, #20]
 80015d0:	430a      	orrs	r2, r1
 80015d2:	6861      	ldr	r1, [r4, #4]
 80015d4:	3901      	subs	r1, #1
 80015d6:	430a      	orrs	r2, r1
 80015d8:	61da      	str	r2, [r3, #28]
 80015da:	2000      	movs	r0, #0
 80015dc:	2301      	movs	r3, #1
 80015de:	6260      	str	r0, [r4, #36]	; 0x24
 80015e0:	f884 3020 	strb.w	r3, [r4, #32]
 80015e4:	bd38      	pop	{r3, r4, r5, pc}
 80015e6:	f7ff ff7d 	bl	80014e4 <HAL_GetTick>
 80015ea:	1b40      	subs	r0, r0, r5
 80015ec:	280a      	cmp	r0, #10
 80015ee:	d9a4      	bls.n	800153a <HAL_CAN_Init+0x22>
 80015f0:	6a63      	ldr	r3, [r4, #36]	; 0x24
 80015f2:	f443 3300 	orr.w	r3, r3, #131072	; 0x20000
 80015f6:	6263      	str	r3, [r4, #36]	; 0x24
 80015f8:	2305      	movs	r3, #5
 80015fa:	f884 3020 	strb.w	r3, [r4, #32]
 80015fe:	2001      	movs	r0, #1
 8001600:	e7f0      	b.n	80015e4 <HAL_CAN_Init+0xcc>
 8001602:	f7ff ff6f 	bl	80014e4 <HAL_GetTick>
 8001606:	1b40      	subs	r0, r0, r5
 8001608:	280a      	cmp	r0, #10
 800160a:	d9a1      	bls.n	8001550 <HAL_CAN_Init+0x38>
 800160c:	e7f0      	b.n	80015f0 <HAL_CAN_Init+0xd8>
	...

08001610 <HAL_NVIC_SetPriorityGrouping>:
 8001610:	4907      	ldr	r1, [pc, #28]	; (8001630 <HAL_NVIC_SetPriorityGrouping+0x20>)
 8001612:	68ca      	ldr	r2, [r1, #12]
 8001614:	f422 62e0 	bic.w	r2, r2, #1792	; 0x700
 8001618:	0203      	lsls	r3, r0, #8
 800161a:	0412      	lsls	r2, r2, #16
 800161c:	f403 63e0 	and.w	r3, r3, #1792	; 0x700
 8001620:	0c12      	lsrs	r2, r2, #16
 8001622:	4313      	orrs	r3, r2
 8001624:	f043 63bf 	orr.w	r3, r3, #100139008	; 0x5f80000
 8001628:	f443 3300 	orr.w	r3, r3, #131072	; 0x20000
 800162c:	60cb      	str	r3, [r1, #12]
 800162e:	4770      	bx	lr
 8001630:	e000ed00 	.word	0xe000ed00

08001634 <HAL_NVIC_SetPriority>:
 8001634:	4b16      	ldr	r3, [pc, #88]	; (8001690 <HAL_NVIC_SetPriority+0x5c>)
 8001636:	b530      	push	{r4, r5, lr}
 8001638:	68dc      	ldr	r4, [r3, #12]
 800163a:	f3c4 2402 	ubfx	r4, r4, #8, #3
 800163e:	f1c4 0507 	rsb	r5, r4, #7
 8001642:	1d23      	adds	r3, r4, #4
 8001644:	2d04      	cmp	r5, #4
 8001646:	bf28      	it	cs
 8001648:	2504      	movcs	r5, #4
 800164a:	2b06      	cmp	r3, #6
 800164c:	f04f 33ff 	mov.w	r3, #4294967295
 8001650:	bf8c      	ite	hi
 8001652:	3c03      	subhi	r4, #3
 8001654:	2400      	movls	r4, #0
 8001656:	fa03 f505 	lsl.w	r5, r3, r5
 800165a:	ea21 0105 	bic.w	r1, r1, r5
 800165e:	40a3      	lsls	r3, r4
 8001660:	ea22 0203 	bic.w	r2, r2, r3
 8001664:	40a1      	lsls	r1, r4
 8001666:	2800      	cmp	r0, #0
 8001668:	ea41 0302 	orr.w	r3, r1, r2
 800166c:	bfac      	ite	ge
 800166e:	f100 4060 	addge.w	r0, r0, #3758096384	; 0xe0000000
 8001672:	4a08      	ldrlt	r2, [pc, #32]	; (8001694 <HAL_NVIC_SetPriority+0x60>)
 8001674:	ea4f 1303 	mov.w	r3, r3, lsl #4
 8001678:	bfb8      	it	lt
 800167a:	f000 000f 	andlt.w	r0, r0, #15
 800167e:	b2db      	uxtb	r3, r3
 8001680:	bfaa      	itet	ge
 8001682:	f500 4061 	addge.w	r0, r0, #57600	; 0xe100
 8001686:	5413      	strblt	r3, [r2, r0]
 8001688:	f880 3300 	strbge.w	r3, [r0, #768]	; 0x300
 800168c:	bd30      	pop	{r4, r5, pc}
 800168e:	bf00      	nop
 8001690:	e000ed00 	.word	0xe000ed00
 8001694:	e000ed14 	.word	0xe000ed14

08001698 <HAL_NVIC_EnableIRQ>:
 8001698:	2800      	cmp	r0, #0
 800169a:	db08      	blt.n	80016ae <HAL_NVIC_EnableIRQ+0x16>
 800169c:	0942      	lsrs	r2, r0, #5
 800169e:	2301      	movs	r3, #1
 80016a0:	f000 001f 	and.w	r0, r0, #31
 80016a4:	fa03 f000 	lsl.w	r0, r3, r0
 80016a8:	4b01      	ldr	r3, [pc, #4]	; (80016b0 <HAL_NVIC_EnableIRQ+0x18>)
 80016aa:	f843 0022 	str.w	r0, [r3, r2, lsl #2]
 80016ae:	4770      	bx	lr
 80016b0:	e000e100 	.word	0xe000e100

080016b4 <HAL_SYSTICK_Config>:
 80016b4:	3801      	subs	r0, #1
 80016b6:	f1b0 7f80 	cmp.w	r0, #16777216	; 0x1000000
 80016ba:	d20a      	bcs.n	80016d2 <HAL_SYSTICK_Config+0x1e>
 80016bc:	4b06      	ldr	r3, [pc, #24]	; (80016d8 <HAL_SYSTICK_Config+0x24>)
 80016be:	4a07      	ldr	r2, [pc, #28]	; (80016dc <HAL_SYSTICK_Config+0x28>)
 80016c0:	6058      	str	r0, [r3, #4]
 80016c2:	21f0      	movs	r1, #240	; 0xf0
 80016c4:	f882 1023 	strb.w	r1, [r2, #35]	; 0x23
 80016c8:	2000      	movs	r0, #0
 80016ca:	2207      	movs	r2, #7
 80016cc:	6098      	str	r0, [r3, #8]
 80016ce:	601a      	str	r2, [r3, #0]
 80016d0:	4770      	bx	lr
 80016d2:	2001      	movs	r0, #1
 80016d4:	4770      	bx	lr
 80016d6:	bf00      	nop
 80016d8:	e000e010 	.word	0xe000e010
 80016dc:	e000ed00 	.word	0xe000ed00

080016e0 <DMA_CalcBaseAndBitshift>:
 80016e0:	6803      	ldr	r3, [r0, #0]
 80016e2:	b510      	push	{r4, lr}
 80016e4:	4c08      	ldr	r4, [pc, #32]	; (8001708 <DMA_CalcBaseAndBitshift+0x28>)
 80016e6:	4602      	mov	r2, r0
 80016e8:	b2d9      	uxtb	r1, r3
 80016ea:	3910      	subs	r1, #16
 80016ec:	2018      	movs	r0, #24
 80016ee:	fbb1 f0f0 	udiv	r0, r1, r0
 80016f2:	5c20      	ldrb	r0, [r4, r0]
 80016f4:	65d0      	str	r0, [r2, #92]	; 0x5c
 80016f6:	f423 707f 	bic.w	r0, r3, #1020	; 0x3fc
 80016fa:	f020 0003 	bic.w	r0, r0, #3
 80016fe:	295f      	cmp	r1, #95	; 0x5f
 8001700:	bf88      	it	hi
 8001702:	3004      	addhi	r0, #4
 8001704:	6590      	str	r0, [r2, #88]	; 0x58
 8001706:	bd10      	pop	{r4, pc}
 8001708:	08003dc4 	.word	0x08003dc4

0800170c <HAL_DMA_Init>:
 800170c:	b570      	push	{r4, r5, r6, lr}
 800170e:	4604      	mov	r4, r0
 8001710:	f7ff fee8 	bl	80014e4 <HAL_GetTick>
 8001714:	4605      	mov	r5, r0
 8001716:	2c00      	cmp	r4, #0
 8001718:	d073      	beq.n	8001802 <HAL_DMA_Init+0xf6>
 800171a:	2302      	movs	r3, #2
 800171c:	f884 3035 	strb.w	r3, [r4, #53]	; 0x35
 8001720:	6822      	ldr	r2, [r4, #0]
 8001722:	2300      	movs	r3, #0
 8001724:	f884 3034 	strb.w	r3, [r4, #52]	; 0x34
 8001728:	6813      	ldr	r3, [r2, #0]
 800172a:	f023 0301 	bic.w	r3, r3, #1
 800172e:	6013      	str	r3, [r2, #0]
 8001730:	6821      	ldr	r1, [r4, #0]
 8001732:	680b      	ldr	r3, [r1, #0]
 8001734:	07d8      	lsls	r0, r3, #31
 8001736:	d42f      	bmi.n	8001798 <HAL_DMA_Init+0x8c>
 8001738:	680b      	ldr	r3, [r1, #0]
 800173a:	4d33      	ldr	r5, [pc, #204]	; (8001808 <HAL_DMA_Init+0xfc>)
 800173c:	69a0      	ldr	r0, [r4, #24]
 800173e:	401d      	ands	r5, r3
 8001740:	e9d4 2301 	ldrd	r2, r3, [r4, #4]
 8001744:	4313      	orrs	r3, r2
 8001746:	68e2      	ldr	r2, [r4, #12]
 8001748:	4313      	orrs	r3, r2
 800174a:	6922      	ldr	r2, [r4, #16]
 800174c:	4313      	orrs	r3, r2
 800174e:	6962      	ldr	r2, [r4, #20]
 8001750:	4313      	orrs	r3, r2
 8001752:	69e2      	ldr	r2, [r4, #28]
 8001754:	4303      	orrs	r3, r0
 8001756:	4313      	orrs	r3, r2
 8001758:	6a22      	ldr	r2, [r4, #32]
 800175a:	4313      	orrs	r3, r2
 800175c:	6a62      	ldr	r2, [r4, #36]	; 0x24
 800175e:	2a04      	cmp	r2, #4
 8001760:	ea43 0305 	orr.w	r3, r3, r5
 8001764:	bf02      	ittt	eq
 8001766:	e9d4 560b 	ldrdeq	r5, r6, [r4, #44]	; 0x2c
 800176a:	4335      	orreq	r5, r6
 800176c:	432b      	orreq	r3, r5
 800176e:	600b      	str	r3, [r1, #0]
 8001770:	694b      	ldr	r3, [r1, #20]
 8001772:	2a04      	cmp	r2, #4
 8001774:	f023 0307 	bic.w	r3, r3, #7
 8001778:	ea43 0302 	orr.w	r3, r3, r2
 800177c:	d133      	bne.n	80017e6 <HAL_DMA_Init+0xda>
 800177e:	6aa2      	ldr	r2, [r4, #40]	; 0x28
 8001780:	6ae5      	ldr	r5, [r4, #44]	; 0x2c
 8001782:	4313      	orrs	r3, r2
 8001784:	b37d      	cbz	r5, 80017e6 <HAL_DMA_Init+0xda>
 8001786:	b990      	cbnz	r0, 80017ae <HAL_DMA_Init+0xa2>
 8001788:	2a01      	cmp	r2, #1
 800178a:	d021      	beq.n	80017d0 <HAL_DMA_Init+0xc4>
 800178c:	f032 0202 	bics.w	r2, r2, #2
 8001790:	d129      	bne.n	80017e6 <HAL_DMA_Init+0xda>
 8001792:	01ea      	lsls	r2, r5, #7
 8001794:	d527      	bpl.n	80017e6 <HAL_DMA_Init+0xda>
 8001796:	e01e      	b.n	80017d6 <HAL_DMA_Init+0xca>
 8001798:	f7ff fea4 	bl	80014e4 <HAL_GetTick>
 800179c:	1b40      	subs	r0, r0, r5
 800179e:	2805      	cmp	r0, #5
 80017a0:	d9c6      	bls.n	8001730 <HAL_DMA_Init+0x24>
 80017a2:	2320      	movs	r3, #32
 80017a4:	6563      	str	r3, [r4, #84]	; 0x54
 80017a6:	2003      	movs	r0, #3
 80017a8:	f884 0035 	strb.w	r0, [r4, #53]	; 0x35
 80017ac:	bd70      	pop	{r4, r5, r6, pc}
 80017ae:	f5b0 5f00 	cmp.w	r0, #8192	; 0x2000
 80017b2:	d114      	bne.n	80017de <HAL_DMA_Init+0xd2>
 80017b4:	2a03      	cmp	r2, #3
 80017b6:	d816      	bhi.n	80017e6 <HAL_DMA_Init+0xda>
 80017b8:	a001      	add	r0, pc, #4	; (adr r0, 80017c0 <HAL_DMA_Init+0xb4>)
 80017ba:	f850 f022 	ldr.w	pc, [r0, r2, lsl #2]
 80017be:	bf00      	nop
 80017c0:	080017d7 	.word	0x080017d7
 80017c4:	08001793 	.word	0x08001793
 80017c8:	080017d7 	.word	0x080017d7
 80017cc:	080017d1 	.word	0x080017d1
 80017d0:	f1b5 7fc0 	cmp.w	r5, #25165824	; 0x1800000
 80017d4:	d107      	bne.n	80017e6 <HAL_DMA_Init+0xda>
 80017d6:	2340      	movs	r3, #64	; 0x40
 80017d8:	6563      	str	r3, [r4, #84]	; 0x54
 80017da:	2001      	movs	r0, #1
 80017dc:	e7e4      	b.n	80017a8 <HAL_DMA_Init+0x9c>
 80017de:	2a02      	cmp	r2, #2
 80017e0:	d9f9      	bls.n	80017d6 <HAL_DMA_Init+0xca>
 80017e2:	2a03      	cmp	r2, #3
 80017e4:	d0d5      	beq.n	8001792 <HAL_DMA_Init+0x86>
 80017e6:	614b      	str	r3, [r1, #20]
 80017e8:	4620      	mov	r0, r4
 80017ea:	f7ff ff79 	bl	80016e0 <DMA_CalcBaseAndBitshift>
 80017ee:	6de2      	ldr	r2, [r4, #92]	; 0x5c
 80017f0:	233f      	movs	r3, #63	; 0x3f
 80017f2:	4093      	lsls	r3, r2
 80017f4:	6083      	str	r3, [r0, #8]
 80017f6:	2000      	movs	r0, #0
 80017f8:	2301      	movs	r3, #1
 80017fa:	6560      	str	r0, [r4, #84]	; 0x54
 80017fc:	f884 3035 	strb.w	r3, [r4, #53]	; 0x35
 8001800:	e7d4      	b.n	80017ac <HAL_DMA_Init+0xa0>
 8001802:	2001      	movs	r0, #1
 8001804:	e7d2      	b.n	80017ac <HAL_DMA_Init+0xa0>
 8001806:	bf00      	nop
 8001808:	f010803f 	.word	0xf010803f

0800180c <HAL_DMA_Start_IT>:
 800180c:	b570      	push	{r4, r5, r6, lr}
 800180e:	f890 4034 	ldrb.w	r4, [r0, #52]	; 0x34
 8001812:	6d86      	ldr	r6, [r0, #88]	; 0x58
 8001814:	2c01      	cmp	r4, #1
 8001816:	d031      	beq.n	800187c <HAL_DMA_Start_IT+0x70>
 8001818:	2401      	movs	r4, #1
 800181a:	f880 4034 	strb.w	r4, [r0, #52]	; 0x34
 800181e:	f890 4035 	ldrb.w	r4, [r0, #53]	; 0x35
 8001822:	2c01      	cmp	r4, #1
 8001824:	f04f 0500 	mov.w	r5, #0
 8001828:	f04f 0402 	mov.w	r4, #2
 800182c:	d124      	bne.n	8001878 <HAL_DMA_Start_IT+0x6c>
 800182e:	f880 4035 	strb.w	r4, [r0, #53]	; 0x35
 8001832:	6804      	ldr	r4, [r0, #0]
 8001834:	6545      	str	r5, [r0, #84]	; 0x54
 8001836:	6825      	ldr	r5, [r4, #0]
 8001838:	f425 2580 	bic.w	r5, r5, #262144	; 0x40000
 800183c:	6025      	str	r5, [r4, #0]
 800183e:	6063      	str	r3, [r4, #4]
 8001840:	6883      	ldr	r3, [r0, #8]
 8001842:	2b40      	cmp	r3, #64	; 0x40
 8001844:	bf0e      	itee	eq
 8001846:	60a2      	streq	r2, [r4, #8]
 8001848:	60a1      	strne	r1, [r4, #8]
 800184a:	60e2      	strne	r2, [r4, #12]
 800184c:	6dc2      	ldr	r2, [r0, #92]	; 0x5c
 800184e:	bf08      	it	eq
 8001850:	60e1      	streq	r1, [r4, #12]
 8001852:	233f      	movs	r3, #63	; 0x3f
 8001854:	4093      	lsls	r3, r2
 8001856:	60b3      	str	r3, [r6, #8]
 8001858:	6823      	ldr	r3, [r4, #0]
 800185a:	f043 0316 	orr.w	r3, r3, #22
 800185e:	6023      	str	r3, [r4, #0]
 8001860:	6c03      	ldr	r3, [r0, #64]	; 0x40
 8001862:	b11b      	cbz	r3, 800186c <HAL_DMA_Start_IT+0x60>
 8001864:	6823      	ldr	r3, [r4, #0]
 8001866:	f043 0308 	orr.w	r3, r3, #8
 800186a:	6023      	str	r3, [r4, #0]
 800186c:	6823      	ldr	r3, [r4, #0]
 800186e:	f043 0301 	orr.w	r3, r3, #1
 8001872:	6023      	str	r3, [r4, #0]
 8001874:	2000      	movs	r0, #0
 8001876:	bd70      	pop	{r4, r5, r6, pc}
 8001878:	f880 5034 	strb.w	r5, [r0, #52]	; 0x34
 800187c:	2002      	movs	r0, #2
 800187e:	e7fa      	b.n	8001876 <HAL_DMA_Start_IT+0x6a>

08001880 <HAL_DMA_Abort_IT>:
 8001880:	f890 3035 	ldrb.w	r3, [r0, #53]	; 0x35
 8001884:	2b02      	cmp	r3, #2
 8001886:	d003      	beq.n	8001890 <HAL_DMA_Abort_IT+0x10>
 8001888:	2380      	movs	r3, #128	; 0x80
 800188a:	6543      	str	r3, [r0, #84]	; 0x54
 800188c:	2001      	movs	r0, #1
 800188e:	4770      	bx	lr
 8001890:	6802      	ldr	r2, [r0, #0]
 8001892:	2305      	movs	r3, #5
 8001894:	f880 3035 	strb.w	r3, [r0, #53]	; 0x35
 8001898:	6813      	ldr	r3, [r2, #0]
 800189a:	f023 0301 	bic.w	r3, r3, #1
 800189e:	6013      	str	r3, [r2, #0]
 80018a0:	2000      	movs	r0, #0
 80018a2:	4770      	bx	lr

080018a4 <HAL_DMA_IRQHandler>:
 80018a4:	b5f7      	push	{r0, r1, r2, r4, r5, r6, r7, lr}
 80018a6:	2300      	movs	r3, #0
 80018a8:	9301      	str	r3, [sp, #4]
 80018aa:	4b5c      	ldr	r3, [pc, #368]	; (8001a1c <HAL_DMA_IRQHandler+0x178>)
 80018ac:	6d85      	ldr	r5, [r0, #88]	; 0x58
 80018ae:	681f      	ldr	r7, [r3, #0]
 80018b0:	6dc3      	ldr	r3, [r0, #92]	; 0x5c
 80018b2:	682e      	ldr	r6, [r5, #0]
 80018b4:	2208      	movs	r2, #8
 80018b6:	409a      	lsls	r2, r3
 80018b8:	4232      	tst	r2, r6
 80018ba:	4604      	mov	r4, r0
 80018bc:	d00c      	beq.n	80018d8 <HAL_DMA_IRQHandler+0x34>
 80018be:	6801      	ldr	r1, [r0, #0]
 80018c0:	6808      	ldr	r0, [r1, #0]
 80018c2:	0740      	lsls	r0, r0, #29
 80018c4:	d508      	bpl.n	80018d8 <HAL_DMA_IRQHandler+0x34>
 80018c6:	6808      	ldr	r0, [r1, #0]
 80018c8:	f020 0004 	bic.w	r0, r0, #4
 80018cc:	6008      	str	r0, [r1, #0]
 80018ce:	60aa      	str	r2, [r5, #8]
 80018d0:	6d62      	ldr	r2, [r4, #84]	; 0x54
 80018d2:	f042 0201 	orr.w	r2, r2, #1
 80018d6:	6562      	str	r2, [r4, #84]	; 0x54
 80018d8:	2201      	movs	r2, #1
 80018da:	409a      	lsls	r2, r3
 80018dc:	4232      	tst	r2, r6
 80018de:	d008      	beq.n	80018f2 <HAL_DMA_IRQHandler+0x4e>
 80018e0:	6821      	ldr	r1, [r4, #0]
 80018e2:	6949      	ldr	r1, [r1, #20]
 80018e4:	0609      	lsls	r1, r1, #24
 80018e6:	bf41      	itttt	mi
 80018e8:	60aa      	strmi	r2, [r5, #8]
 80018ea:	6d62      	ldrmi	r2, [r4, #84]	; 0x54
 80018ec:	f042 0202 	orrmi.w	r2, r2, #2
 80018f0:	6562      	strmi	r2, [r4, #84]	; 0x54
 80018f2:	2204      	movs	r2, #4
 80018f4:	409a      	lsls	r2, r3
 80018f6:	4232      	tst	r2, r6
 80018f8:	d008      	beq.n	800190c <HAL_DMA_IRQHandler+0x68>
 80018fa:	6821      	ldr	r1, [r4, #0]
 80018fc:	6809      	ldr	r1, [r1, #0]
 80018fe:	0788      	lsls	r0, r1, #30
 8001900:	bf41      	itttt	mi
 8001902:	60aa      	strmi	r2, [r5, #8]
 8001904:	6d62      	ldrmi	r2, [r4, #84]	; 0x54
 8001906:	f042 0204 	orrmi.w	r2, r2, #4
 800190a:	6562      	strmi	r2, [r4, #84]	; 0x54
 800190c:	2210      	movs	r2, #16
 800190e:	409a      	lsls	r2, r3
 8001910:	4232      	tst	r2, r6
 8001912:	d010      	beq.n	8001936 <HAL_DMA_IRQHandler+0x92>
 8001914:	6823      	ldr	r3, [r4, #0]
 8001916:	6819      	ldr	r1, [r3, #0]
 8001918:	0709      	lsls	r1, r1, #28
 800191a:	d50c      	bpl.n	8001936 <HAL_DMA_IRQHandler+0x92>
 800191c:	60aa      	str	r2, [r5, #8]
 800191e:	681a      	ldr	r2, [r3, #0]
 8001920:	0350      	lsls	r0, r2, #13
 8001922:	d537      	bpl.n	8001994 <HAL_DMA_IRQHandler+0xf0>
 8001924:	681b      	ldr	r3, [r3, #0]
 8001926:	0319      	lsls	r1, r3, #12
 8001928:	d401      	bmi.n	800192e <HAL_DMA_IRQHandler+0x8a>
 800192a:	6c23      	ldr	r3, [r4, #64]	; 0x40
 800192c:	e000      	b.n	8001930 <HAL_DMA_IRQHandler+0x8c>
 800192e:	6ca3      	ldr	r3, [r4, #72]	; 0x48
 8001930:	b10b      	cbz	r3, 8001936 <HAL_DMA_IRQHandler+0x92>
 8001932:	4620      	mov	r0, r4
 8001934:	4798      	blx	r3
 8001936:	6de1      	ldr	r1, [r4, #92]	; 0x5c
 8001938:	2220      	movs	r2, #32
 800193a:	408a      	lsls	r2, r1
 800193c:	4232      	tst	r2, r6
 800193e:	d03a      	beq.n	80019b6 <HAL_DMA_IRQHandler+0x112>
 8001940:	6823      	ldr	r3, [r4, #0]
 8001942:	6818      	ldr	r0, [r3, #0]
 8001944:	06c6      	lsls	r6, r0, #27
 8001946:	d536      	bpl.n	80019b6 <HAL_DMA_IRQHandler+0x112>
 8001948:	60aa      	str	r2, [r5, #8]
 800194a:	f894 2035 	ldrb.w	r2, [r4, #53]	; 0x35
 800194e:	2a05      	cmp	r2, #5
 8001950:	681a      	ldr	r2, [r3, #0]
 8001952:	d127      	bne.n	80019a4 <HAL_DMA_IRQHandler+0x100>
 8001954:	f022 0216 	bic.w	r2, r2, #22
 8001958:	601a      	str	r2, [r3, #0]
 800195a:	695a      	ldr	r2, [r3, #20]
 800195c:	f022 0280 	bic.w	r2, r2, #128	; 0x80
 8001960:	615a      	str	r2, [r3, #20]
 8001962:	6c22      	ldr	r2, [r4, #64]	; 0x40
 8001964:	b90a      	cbnz	r2, 800196a <HAL_DMA_IRQHandler+0xc6>
 8001966:	6ca2      	ldr	r2, [r4, #72]	; 0x48
 8001968:	b11a      	cbz	r2, 8001972 <HAL_DMA_IRQHandler+0xce>
 800196a:	681a      	ldr	r2, [r3, #0]
 800196c:	f022 0208 	bic.w	r2, r2, #8
 8001970:	601a      	str	r2, [r3, #0]
 8001972:	233f      	movs	r3, #63	; 0x3f
 8001974:	408b      	lsls	r3, r1
 8001976:	60ab      	str	r3, [r5, #8]
 8001978:	2301      	movs	r3, #1
 800197a:	f884 3035 	strb.w	r3, [r4, #53]	; 0x35
 800197e:	2300      	movs	r3, #0
 8001980:	f884 3034 	strb.w	r3, [r4, #52]	; 0x34
 8001984:	6d23      	ldr	r3, [r4, #80]	; 0x50
 8001986:	2b00      	cmp	r3, #0
 8001988:	d045      	beq.n	8001a16 <HAL_DMA_IRQHandler+0x172>
 800198a:	4620      	mov	r0, r4
 800198c:	b003      	add	sp, #12
 800198e:	e8bd 40f0 	ldmia.w	sp!, {r4, r5, r6, r7, lr}
 8001992:	4718      	bx	r3
 8001994:	681a      	ldr	r2, [r3, #0]
 8001996:	05d2      	lsls	r2, r2, #23
 8001998:	bf5e      	ittt	pl
 800199a:	681a      	ldrpl	r2, [r3, #0]
 800199c:	f022 0208 	bicpl.w	r2, r2, #8
 80019a0:	601a      	strpl	r2, [r3, #0]
 80019a2:	e7c2      	b.n	800192a <HAL_DMA_IRQHandler+0x86>
 80019a4:	0350      	lsls	r0, r2, #13
 80019a6:	d527      	bpl.n	80019f8 <HAL_DMA_IRQHandler+0x154>
 80019a8:	681b      	ldr	r3, [r3, #0]
 80019aa:	0319      	lsls	r1, r3, #12
 80019ac:	d431      	bmi.n	8001a12 <HAL_DMA_IRQHandler+0x16e>
 80019ae:	6c63      	ldr	r3, [r4, #68]	; 0x44
 80019b0:	b10b      	cbz	r3, 80019b6 <HAL_DMA_IRQHandler+0x112>
 80019b2:	4620      	mov	r0, r4
 80019b4:	4798      	blx	r3
 80019b6:	6d63      	ldr	r3, [r4, #84]	; 0x54
 80019b8:	b36b      	cbz	r3, 8001a16 <HAL_DMA_IRQHandler+0x172>
 80019ba:	6d63      	ldr	r3, [r4, #84]	; 0x54
 80019bc:	07da      	lsls	r2, r3, #31
 80019be:	d519      	bpl.n	80019f4 <HAL_DMA_IRQHandler+0x150>
 80019c0:	6822      	ldr	r2, [r4, #0]
 80019c2:	f44f 5316 	mov.w	r3, #9600	; 0x2580
 80019c6:	fbb7 f7f3 	udiv	r7, r7, r3
 80019ca:	2305      	movs	r3, #5
 80019cc:	f884 3035 	strb.w	r3, [r4, #53]	; 0x35
 80019d0:	6813      	ldr	r3, [r2, #0]
 80019d2:	f023 0301 	bic.w	r3, r3, #1
 80019d6:	6013      	str	r3, [r2, #0]
 80019d8:	9b01      	ldr	r3, [sp, #4]
 80019da:	3301      	adds	r3, #1
 80019dc:	42bb      	cmp	r3, r7
 80019de:	9301      	str	r3, [sp, #4]
 80019e0:	d802      	bhi.n	80019e8 <HAL_DMA_IRQHandler+0x144>
 80019e2:	6813      	ldr	r3, [r2, #0]
 80019e4:	07db      	lsls	r3, r3, #31
 80019e6:	d4f7      	bmi.n	80019d8 <HAL_DMA_IRQHandler+0x134>
 80019e8:	2301      	movs	r3, #1
 80019ea:	f884 3035 	strb.w	r3, [r4, #53]	; 0x35
 80019ee:	2300      	movs	r3, #0
 80019f0:	f884 3034 	strb.w	r3, [r4, #52]	; 0x34
 80019f4:	6ce3      	ldr	r3, [r4, #76]	; 0x4c
 80019f6:	e7c6      	b.n	8001986 <HAL_DMA_IRQHandler+0xe2>
 80019f8:	681a      	ldr	r2, [r3, #0]
 80019fa:	f412 7280 	ands.w	r2, r2, #256	; 0x100
 80019fe:	d108      	bne.n	8001a12 <HAL_DMA_IRQHandler+0x16e>
 8001a00:	6819      	ldr	r1, [r3, #0]
 8001a02:	f021 0110 	bic.w	r1, r1, #16
 8001a06:	6019      	str	r1, [r3, #0]
 8001a08:	2301      	movs	r3, #1
 8001a0a:	f884 3035 	strb.w	r3, [r4, #53]	; 0x35
 8001a0e:	f884 2034 	strb.w	r2, [r4, #52]	; 0x34
 8001a12:	6be3      	ldr	r3, [r4, #60]	; 0x3c
 8001a14:	e7cc      	b.n	80019b0 <HAL_DMA_IRQHandler+0x10c>
 8001a16:	b003      	add	sp, #12
 8001a18:	bdf0      	pop	{r4, r5, r6, r7, pc}
 8001a1a:	bf00      	nop
 8001a1c:	20000004 	.word	0x20000004

08001a20 <HAL_GPIO_Init>:
 8001a20:	e92d 4ff7 	stmdb	sp!, {r0, r1, r2, r4, r5, r6, r7, r8, r9, sl, fp, lr}
 8001a24:	f8df 91a8 	ldr.w	r9, [pc, #424]	; 8001bd0 <HAL_GPIO_Init+0x1b0>
 8001a28:	4a67      	ldr	r2, [pc, #412]	; (8001bc8 <HAL_GPIO_Init+0x1a8>)
 8001a2a:	2300      	movs	r3, #0
 8001a2c:	680d      	ldr	r5, [r1, #0]
 8001a2e:	2401      	movs	r4, #1
 8001a30:	409c      	lsls	r4, r3
 8001a32:	ea04 0c05 	and.w	ip, r4, r5
 8001a36:	43ac      	bics	r4, r5
 8001a38:	f040 80b1 	bne.w	8001b9e <HAL_GPIO_Init+0x17e>
 8001a3c:	684d      	ldr	r5, [r1, #4]
 8001a3e:	f005 0403 	and.w	r4, r5, #3
 8001a42:	ea4f 0843 	mov.w	r8, r3, lsl #1
 8001a46:	2603      	movs	r6, #3
 8001a48:	1e67      	subs	r7, r4, #1
 8001a4a:	fa06 f608 	lsl.w	r6, r6, r8
 8001a4e:	2f01      	cmp	r7, #1
 8001a50:	ea6f 0606 	mvn.w	r6, r6
 8001a54:	d834      	bhi.n	8001ac0 <HAL_GPIO_Init+0xa0>
 8001a56:	6887      	ldr	r7, [r0, #8]
 8001a58:	ea07 0e06 	and.w	lr, r7, r6
 8001a5c:	68cf      	ldr	r7, [r1, #12]
 8001a5e:	fa07 f708 	lsl.w	r7, r7, r8
 8001a62:	ea47 070e 	orr.w	r7, r7, lr
 8001a66:	6087      	str	r7, [r0, #8]
 8001a68:	6847      	ldr	r7, [r0, #4]
 8001a6a:	ea27 0e0c 	bic.w	lr, r7, ip
 8001a6e:	f3c5 1700 	ubfx	r7, r5, #4, #1
 8001a72:	409f      	lsls	r7, r3
 8001a74:	ea47 070e 	orr.w	r7, r7, lr
 8001a78:	6047      	str	r7, [r0, #4]
 8001a7a:	68c7      	ldr	r7, [r0, #12]
 8001a7c:	ea07 0e06 	and.w	lr, r7, r6
 8001a80:	688f      	ldr	r7, [r1, #8]
 8001a82:	fa07 f708 	lsl.w	r7, r7, r8
 8001a86:	ea47 070e 	orr.w	r7, r7, lr
 8001a8a:	2c02      	cmp	r4, #2
 8001a8c:	60c7      	str	r7, [r0, #12]
 8001a8e:	d119      	bne.n	8001ac4 <HAL_GPIO_Init+0xa4>
 8001a90:	ea4f 0ad3 	mov.w	sl, r3, lsr #3
 8001a94:	eb00 0a8a 	add.w	sl, r0, sl, lsl #2
 8001a98:	f003 0b07 	and.w	fp, r3, #7
 8001a9c:	f8da 7020 	ldr.w	r7, [sl, #32]
 8001aa0:	ea4f 0b8b 	mov.w	fp, fp, lsl #2
 8001aa4:	f04f 0e0f 	mov.w	lr, #15
 8001aa8:	fa0e fe0b 	lsl.w	lr, lr, fp
 8001aac:	ea27 0e0e 	bic.w	lr, r7, lr
 8001ab0:	690f      	ldr	r7, [r1, #16]
 8001ab2:	fa07 f70b 	lsl.w	r7, r7, fp
 8001ab6:	ea47 070e 	orr.w	r7, r7, lr
 8001aba:	f8ca 7020 	str.w	r7, [sl, #32]
 8001abe:	e001      	b.n	8001ac4 <HAL_GPIO_Init+0xa4>
 8001ac0:	2c03      	cmp	r4, #3
 8001ac2:	d1da      	bne.n	8001a7a <HAL_GPIO_Init+0x5a>
 8001ac4:	6807      	ldr	r7, [r0, #0]
 8001ac6:	fa04 f408 	lsl.w	r4, r4, r8
 8001aca:	403e      	ands	r6, r7
 8001acc:	4326      	orrs	r6, r4
 8001ace:	f415 3f40 	tst.w	r5, #196608	; 0x30000
 8001ad2:	6006      	str	r6, [r0, #0]
 8001ad4:	d063      	beq.n	8001b9e <HAL_GPIO_Init+0x17e>
 8001ad6:	f04f 0a00 	mov.w	sl, #0
 8001ada:	f8cd a004 	str.w	sl, [sp, #4]
 8001ade:	f8d9 6044 	ldr.w	r6, [r9, #68]	; 0x44
 8001ae2:	4c3a      	ldr	r4, [pc, #232]	; (8001bcc <HAL_GPIO_Init+0x1ac>)
 8001ae4:	f446 4680 	orr.w	r6, r6, #16384	; 0x4000
 8001ae8:	f8c9 6044 	str.w	r6, [r9, #68]	; 0x44
 8001aec:	f8d9 6044 	ldr.w	r6, [r9, #68]	; 0x44
 8001af0:	f406 4680 	and.w	r6, r6, #16384	; 0x4000
 8001af4:	9601      	str	r6, [sp, #4]
 8001af6:	9e01      	ldr	r6, [sp, #4]
 8001af8:	f023 0603 	bic.w	r6, r3, #3
 8001afc:	f106 4680 	add.w	r6, r6, #1073741824	; 0x40000000
 8001b00:	f506 369c 	add.w	r6, r6, #79872	; 0x13800
 8001b04:	f003 0e03 	and.w	lr, r3, #3
 8001b08:	f8d6 8008 	ldr.w	r8, [r6, #8]
 8001b0c:	ea4f 0e8e 	mov.w	lr, lr, lsl #2
 8001b10:	270f      	movs	r7, #15
 8001b12:	fa07 f70e 	lsl.w	r7, r7, lr
 8001b16:	42a0      	cmp	r0, r4
 8001b18:	ea28 0707 	bic.w	r7, r8, r7
 8001b1c:	d046      	beq.n	8001bac <HAL_GPIO_Init+0x18c>
 8001b1e:	f504 6480 	add.w	r4, r4, #1024	; 0x400
 8001b22:	42a0      	cmp	r0, r4
 8001b24:	d044      	beq.n	8001bb0 <HAL_GPIO_Init+0x190>
 8001b26:	f504 6480 	add.w	r4, r4, #1024	; 0x400
 8001b2a:	42a0      	cmp	r0, r4
 8001b2c:	d042      	beq.n	8001bb4 <HAL_GPIO_Init+0x194>
 8001b2e:	f504 6480 	add.w	r4, r4, #1024	; 0x400
 8001b32:	42a0      	cmp	r0, r4
 8001b34:	d040      	beq.n	8001bb8 <HAL_GPIO_Init+0x198>
 8001b36:	f504 6480 	add.w	r4, r4, #1024	; 0x400
 8001b3a:	42a0      	cmp	r0, r4
 8001b3c:	d03e      	beq.n	8001bbc <HAL_GPIO_Init+0x19c>
 8001b3e:	f504 6480 	add.w	r4, r4, #1024	; 0x400
 8001b42:	42a0      	cmp	r0, r4
 8001b44:	d03c      	beq.n	8001bc0 <HAL_GPIO_Init+0x1a0>
 8001b46:	f504 6480 	add.w	r4, r4, #1024	; 0x400
 8001b4a:	42a0      	cmp	r0, r4
 8001b4c:	d03a      	beq.n	8001bc4 <HAL_GPIO_Init+0x1a4>
 8001b4e:	f504 6480 	add.w	r4, r4, #1024	; 0x400
 8001b52:	42a0      	cmp	r0, r4
 8001b54:	bf0c      	ite	eq
 8001b56:	2407      	moveq	r4, #7
 8001b58:	2408      	movne	r4, #8
 8001b5a:	fa04 f40e 	lsl.w	r4, r4, lr
 8001b5e:	433c      	orrs	r4, r7
 8001b60:	60b4      	str	r4, [r6, #8]
 8001b62:	6814      	ldr	r4, [r2, #0]
 8001b64:	ea6f 060c 	mvn.w	r6, ip
 8001b68:	03ef      	lsls	r7, r5, #15
 8001b6a:	bf54      	ite	pl
 8001b6c:	4034      	andpl	r4, r6
 8001b6e:	ea4c 0404 	orrmi.w	r4, ip, r4
 8001b72:	6014      	str	r4, [r2, #0]
 8001b74:	6854      	ldr	r4, [r2, #4]
 8001b76:	03af      	lsls	r7, r5, #14
 8001b78:	bf54      	ite	pl
 8001b7a:	4034      	andpl	r4, r6
 8001b7c:	ea4c 0404 	orrmi.w	r4, ip, r4
 8001b80:	6054      	str	r4, [r2, #4]
 8001b82:	6894      	ldr	r4, [r2, #8]
 8001b84:	02ef      	lsls	r7, r5, #11
 8001b86:	bf54      	ite	pl
 8001b88:	4034      	andpl	r4, r6
 8001b8a:	ea4c 0404 	orrmi.w	r4, ip, r4
 8001b8e:	6094      	str	r4, [r2, #8]
 8001b90:	68d4      	ldr	r4, [r2, #12]
 8001b92:	02ad      	lsls	r5, r5, #10
 8001b94:	bf54      	ite	pl
 8001b96:	4034      	andpl	r4, r6
 8001b98:	ea4c 0404 	orrmi.w	r4, ip, r4
 8001b9c:	60d4      	str	r4, [r2, #12]
 8001b9e:	3301      	adds	r3, #1
 8001ba0:	2b10      	cmp	r3, #16
 8001ba2:	f47f af43 	bne.w	8001a2c <HAL_GPIO_Init+0xc>
 8001ba6:	b003      	add	sp, #12
 8001ba8:	e8bd 8ff0 	ldmia.w	sp!, {r4, r5, r6, r7, r8, r9, sl, fp, pc}
 8001bac:	4654      	mov	r4, sl
 8001bae:	e7d4      	b.n	8001b5a <HAL_GPIO_Init+0x13a>
 8001bb0:	2401      	movs	r4, #1
 8001bb2:	e7d2      	b.n	8001b5a <HAL_GPIO_Init+0x13a>
 8001bb4:	2402      	movs	r4, #2
 8001bb6:	e7d0      	b.n	8001b5a <HAL_GPIO_Init+0x13a>
 8001bb8:	2403      	movs	r4, #3
 8001bba:	e7ce      	b.n	8001b5a <HAL_GPIO_Init+0x13a>
 8001bbc:	2404      	movs	r4, #4
 8001bbe:	e7cc      	b.n	8001b5a <HAL_GPIO_Init+0x13a>
 8001bc0:	2405      	movs	r4, #5
 8001bc2:	e7ca      	b.n	8001b5a <HAL_GPIO_Init+0x13a>
 8001bc4:	2406      	movs	r4, #6
 8001bc6:	e7c8      	b.n	8001b5a <HAL_GPIO_Init+0x13a>
 8001bc8:	40013c00 	.word	0x40013c00
 8001bcc:	40020000 	.word	0x40020000
 8001bd0:	40023800 	.word	0x40023800

08001bd4 <HAL_GPIO_WritePin>:
 8001bd4:	b10a      	cbz	r2, 8001bda <HAL_GPIO_WritePin+0x6>
 8001bd6:	6181      	str	r1, [r0, #24]
 8001bd8:	4770      	bx	lr
 8001bda:	0409      	lsls	r1, r1, #16
 8001bdc:	e7fb      	b.n	8001bd6 <HAL_GPIO_WritePin+0x2>

08001bde <HAL_GPIO_TogglePin>:
 8001bde:	6943      	ldr	r3, [r0, #20]
 8001be0:	ea01 0203 	and.w	r2, r1, r3
 8001be4:	ea21 0103 	bic.w	r1, r1, r3
 8001be8:	ea41 4102 	orr.w	r1, r1, r2, lsl #16
 8001bec:	6181      	str	r1, [r0, #24]
 8001bee:	4770      	bx	lr

08001bf0 <HAL_GPIO_EXTI_Callback>:
 8001bf0:	4770      	bx	lr
	...

08001bf4 <HAL_GPIO_EXTI_IRQHandler>:
 8001bf4:	4a04      	ldr	r2, [pc, #16]	; (8001c08 <HAL_GPIO_EXTI_IRQHandler+0x14>)
 8001bf6:	6951      	ldr	r1, [r2, #20]
 8001bf8:	4201      	tst	r1, r0
 8001bfa:	b508      	push	{r3, lr}
 8001bfc:	d002      	beq.n	8001c04 <HAL_GPIO_EXTI_IRQHandler+0x10>
 8001bfe:	6150      	str	r0, [r2, #20]
 8001c00:	f7ff fff6 	bl	8001bf0 <HAL_GPIO_EXTI_Callback>
 8001c04:	bd08      	pop	{r3, pc}
 8001c06:	bf00      	nop
 8001c08:	40013c00 	.word	0x40013c00

08001c0c <HAL_RCC_OscConfig>:
 8001c0c:	e92d 41f3 	stmdb	sp!, {r0, r1, r4, r5, r6, r7, r8, lr}
 8001c10:	4604      	mov	r4, r0
 8001c12:	b340      	cbz	r0, 8001c66 <HAL_RCC_OscConfig+0x5a>
 8001c14:	6803      	ldr	r3, [r0, #0]
 8001c16:	07dd      	lsls	r5, r3, #31
 8001c18:	d410      	bmi.n	8001c3c <HAL_RCC_OscConfig+0x30>
 8001c1a:	6823      	ldr	r3, [r4, #0]
 8001c1c:	0798      	lsls	r0, r3, #30
 8001c1e:	d45e      	bmi.n	8001cde <HAL_RCC_OscConfig+0xd2>
 8001c20:	6823      	ldr	r3, [r4, #0]
 8001c22:	071a      	lsls	r2, r3, #28
 8001c24:	f100 80a0 	bmi.w	8001d68 <HAL_RCC_OscConfig+0x15c>
 8001c28:	6823      	ldr	r3, [r4, #0]
 8001c2a:	075b      	lsls	r3, r3, #29
 8001c2c:	f100 80be 	bmi.w	8001dac <HAL_RCC_OscConfig+0x1a0>
 8001c30:	69a0      	ldr	r0, [r4, #24]
 8001c32:	2800      	cmp	r0, #0
 8001c34:	f040 811f 	bne.w	8001e76 <HAL_RCC_OscConfig+0x26a>
 8001c38:	2000      	movs	r0, #0
 8001c3a:	e02b      	b.n	8001c94 <HAL_RCC_OscConfig+0x88>
 8001c3c:	4ba6      	ldr	r3, [pc, #664]	; (8001ed8 <HAL_RCC_OscConfig+0x2cc>)
 8001c3e:	689a      	ldr	r2, [r3, #8]
 8001c40:	f002 020c 	and.w	r2, r2, #12
 8001c44:	2a04      	cmp	r2, #4
 8001c46:	d007      	beq.n	8001c58 <HAL_RCC_OscConfig+0x4c>
 8001c48:	689a      	ldr	r2, [r3, #8]
 8001c4a:	f002 020c 	and.w	r2, r2, #12
 8001c4e:	2a08      	cmp	r2, #8
 8001c50:	d10b      	bne.n	8001c6a <HAL_RCC_OscConfig+0x5e>
 8001c52:	685a      	ldr	r2, [r3, #4]
 8001c54:	0251      	lsls	r1, r2, #9
 8001c56:	d508      	bpl.n	8001c6a <HAL_RCC_OscConfig+0x5e>
 8001c58:	4b9f      	ldr	r3, [pc, #636]	; (8001ed8 <HAL_RCC_OscConfig+0x2cc>)
 8001c5a:	681b      	ldr	r3, [r3, #0]
 8001c5c:	039a      	lsls	r2, r3, #14
 8001c5e:	d5dc      	bpl.n	8001c1a <HAL_RCC_OscConfig+0xe>
 8001c60:	6863      	ldr	r3, [r4, #4]
 8001c62:	2b00      	cmp	r3, #0
 8001c64:	d1d9      	bne.n	8001c1a <HAL_RCC_OscConfig+0xe>
 8001c66:	2001      	movs	r0, #1
 8001c68:	e014      	b.n	8001c94 <HAL_RCC_OscConfig+0x88>
 8001c6a:	6862      	ldr	r2, [r4, #4]
 8001c6c:	f5b2 3f80 	cmp.w	r2, #65536	; 0x10000
 8001c70:	d113      	bne.n	8001c9a <HAL_RCC_OscConfig+0x8e>
 8001c72:	681a      	ldr	r2, [r3, #0]
 8001c74:	f442 3280 	orr.w	r2, r2, #65536	; 0x10000
 8001c78:	601a      	str	r2, [r3, #0]
 8001c7a:	f7ff fc33 	bl	80014e4 <HAL_GetTick>
 8001c7e:	4e96      	ldr	r6, [pc, #600]	; (8001ed8 <HAL_RCC_OscConfig+0x2cc>)
 8001c80:	4605      	mov	r5, r0
 8001c82:	6833      	ldr	r3, [r6, #0]
 8001c84:	039b      	lsls	r3, r3, #14
 8001c86:	d4c8      	bmi.n	8001c1a <HAL_RCC_OscConfig+0xe>
 8001c88:	f7ff fc2c 	bl	80014e4 <HAL_GetTick>
 8001c8c:	1b40      	subs	r0, r0, r5
 8001c8e:	2864      	cmp	r0, #100	; 0x64
 8001c90:	d9f7      	bls.n	8001c82 <HAL_RCC_OscConfig+0x76>
 8001c92:	2003      	movs	r0, #3
 8001c94:	b002      	add	sp, #8
 8001c96:	e8bd 81f0 	ldmia.w	sp!, {r4, r5, r6, r7, r8, pc}
 8001c9a:	4d8f      	ldr	r5, [pc, #572]	; (8001ed8 <HAL_RCC_OscConfig+0x2cc>)
 8001c9c:	f5b2 2fa0 	cmp.w	r2, #327680	; 0x50000
 8001ca0:	682b      	ldr	r3, [r5, #0]
 8001ca2:	d107      	bne.n	8001cb4 <HAL_RCC_OscConfig+0xa8>
 8001ca4:	f443 2380 	orr.w	r3, r3, #262144	; 0x40000
 8001ca8:	602b      	str	r3, [r5, #0]
 8001caa:	682b      	ldr	r3, [r5, #0]
 8001cac:	f443 3380 	orr.w	r3, r3, #65536	; 0x10000
 8001cb0:	602b      	str	r3, [r5, #0]
 8001cb2:	e7e2      	b.n	8001c7a <HAL_RCC_OscConfig+0x6e>
 8001cb4:	f423 3380 	bic.w	r3, r3, #65536	; 0x10000
 8001cb8:	602b      	str	r3, [r5, #0]
 8001cba:	682b      	ldr	r3, [r5, #0]
 8001cbc:	f423 2380 	bic.w	r3, r3, #262144	; 0x40000
 8001cc0:	602b      	str	r3, [r5, #0]
 8001cc2:	2a00      	cmp	r2, #0
 8001cc4:	d1d9      	bne.n	8001c7a <HAL_RCC_OscConfig+0x6e>
 8001cc6:	f7ff fc0d 	bl	80014e4 <HAL_GetTick>
 8001cca:	4606      	mov	r6, r0
 8001ccc:	682b      	ldr	r3, [r5, #0]
 8001cce:	039f      	lsls	r7, r3, #14
 8001cd0:	d5a3      	bpl.n	8001c1a <HAL_RCC_OscConfig+0xe>
 8001cd2:	f7ff fc07 	bl	80014e4 <HAL_GetTick>
 8001cd6:	1b80      	subs	r0, r0, r6
 8001cd8:	2864      	cmp	r0, #100	; 0x64
 8001cda:	d9f7      	bls.n	8001ccc <HAL_RCC_OscConfig+0xc0>
 8001cdc:	e7d9      	b.n	8001c92 <HAL_RCC_OscConfig+0x86>
 8001cde:	4b7e      	ldr	r3, [pc, #504]	; (8001ed8 <HAL_RCC_OscConfig+0x2cc>)
 8001ce0:	689a      	ldr	r2, [r3, #8]
 8001ce2:	f012 0f0c 	tst.w	r2, #12
 8001ce6:	d007      	beq.n	8001cf8 <HAL_RCC_OscConfig+0xec>
 8001ce8:	689a      	ldr	r2, [r3, #8]
 8001cea:	f002 020c 	and.w	r2, r2, #12
 8001cee:	2a08      	cmp	r2, #8
 8001cf0:	d111      	bne.n	8001d16 <HAL_RCC_OscConfig+0x10a>
 8001cf2:	685b      	ldr	r3, [r3, #4]
 8001cf4:	025e      	lsls	r6, r3, #9
 8001cf6:	d40e      	bmi.n	8001d16 <HAL_RCC_OscConfig+0x10a>
 8001cf8:	4b77      	ldr	r3, [pc, #476]	; (8001ed8 <HAL_RCC_OscConfig+0x2cc>)
 8001cfa:	681a      	ldr	r2, [r3, #0]
 8001cfc:	0795      	lsls	r5, r2, #30
 8001cfe:	d502      	bpl.n	8001d06 <HAL_RCC_OscConfig+0xfa>
 8001d00:	68e2      	ldr	r2, [r4, #12]
 8001d02:	2a01      	cmp	r2, #1
 8001d04:	d1af      	bne.n	8001c66 <HAL_RCC_OscConfig+0x5a>
 8001d06:	681a      	ldr	r2, [r3, #0]
 8001d08:	6921      	ldr	r1, [r4, #16]
 8001d0a:	f022 02f8 	bic.w	r2, r2, #248	; 0xf8
 8001d0e:	ea42 02c1 	orr.w	r2, r2, r1, lsl #3
 8001d12:	601a      	str	r2, [r3, #0]
 8001d14:	e784      	b.n	8001c20 <HAL_RCC_OscConfig+0x14>
 8001d16:	68e2      	ldr	r2, [r4, #12]
 8001d18:	4b70      	ldr	r3, [pc, #448]	; (8001edc <HAL_RCC_OscConfig+0x2d0>)
 8001d1a:	b1b2      	cbz	r2, 8001d4a <HAL_RCC_OscConfig+0x13e>
 8001d1c:	2201      	movs	r2, #1
 8001d1e:	601a      	str	r2, [r3, #0]
 8001d20:	f7ff fbe0 	bl	80014e4 <HAL_GetTick>
 8001d24:	4d6c      	ldr	r5, [pc, #432]	; (8001ed8 <HAL_RCC_OscConfig+0x2cc>)
 8001d26:	4606      	mov	r6, r0
 8001d28:	682b      	ldr	r3, [r5, #0]
 8001d2a:	0798      	lsls	r0, r3, #30
 8001d2c:	d507      	bpl.n	8001d3e <HAL_RCC_OscConfig+0x132>
 8001d2e:	682b      	ldr	r3, [r5, #0]
 8001d30:	6922      	ldr	r2, [r4, #16]
 8001d32:	f023 03f8 	bic.w	r3, r3, #248	; 0xf8
 8001d36:	ea43 03c2 	orr.w	r3, r3, r2, lsl #3
 8001d3a:	602b      	str	r3, [r5, #0]
 8001d3c:	e770      	b.n	8001c20 <HAL_RCC_OscConfig+0x14>
 8001d3e:	f7ff fbd1 	bl	80014e4 <HAL_GetTick>
 8001d42:	1b80      	subs	r0, r0, r6
 8001d44:	2802      	cmp	r0, #2
 8001d46:	d9ef      	bls.n	8001d28 <HAL_RCC_OscConfig+0x11c>
 8001d48:	e7a3      	b.n	8001c92 <HAL_RCC_OscConfig+0x86>
 8001d4a:	601a      	str	r2, [r3, #0]
 8001d4c:	f7ff fbca 	bl	80014e4 <HAL_GetTick>
 8001d50:	4e61      	ldr	r6, [pc, #388]	; (8001ed8 <HAL_RCC_OscConfig+0x2cc>)
 8001d52:	4605      	mov	r5, r0
 8001d54:	6833      	ldr	r3, [r6, #0]
 8001d56:	0799      	lsls	r1, r3, #30
 8001d58:	f57f af62 	bpl.w	8001c20 <HAL_RCC_OscConfig+0x14>
 8001d5c:	f7ff fbc2 	bl	80014e4 <HAL_GetTick>
 8001d60:	1b40      	subs	r0, r0, r5
 8001d62:	2802      	cmp	r0, #2
 8001d64:	d9f6      	bls.n	8001d54 <HAL_RCC_OscConfig+0x148>
 8001d66:	e794      	b.n	8001c92 <HAL_RCC_OscConfig+0x86>
 8001d68:	6962      	ldr	r2, [r4, #20]
 8001d6a:	4b5d      	ldr	r3, [pc, #372]	; (8001ee0 <HAL_RCC_OscConfig+0x2d4>)
 8001d6c:	b17a      	cbz	r2, 8001d8e <HAL_RCC_OscConfig+0x182>
 8001d6e:	2201      	movs	r2, #1
 8001d70:	601a      	str	r2, [r3, #0]
 8001d72:	f7ff fbb7 	bl	80014e4 <HAL_GetTick>
 8001d76:	4e58      	ldr	r6, [pc, #352]	; (8001ed8 <HAL_RCC_OscConfig+0x2cc>)
 8001d78:	4605      	mov	r5, r0
 8001d7a:	6f73      	ldr	r3, [r6, #116]	; 0x74
 8001d7c:	079f      	lsls	r7, r3, #30
 8001d7e:	f53f af53 	bmi.w	8001c28 <HAL_RCC_OscConfig+0x1c>
 8001d82:	f7ff fbaf 	bl	80014e4 <HAL_GetTick>
 8001d86:	1b40      	subs	r0, r0, r5
 8001d88:	2802      	cmp	r0, #2
 8001d8a:	d9f6      	bls.n	8001d7a <HAL_RCC_OscConfig+0x16e>
 8001d8c:	e781      	b.n	8001c92 <HAL_RCC_OscConfig+0x86>
 8001d8e:	601a      	str	r2, [r3, #0]
 8001d90:	f7ff fba8 	bl	80014e4 <HAL_GetTick>
 8001d94:	4e50      	ldr	r6, [pc, #320]	; (8001ed8 <HAL_RCC_OscConfig+0x2cc>)
 8001d96:	4605      	mov	r5, r0
 8001d98:	6f73      	ldr	r3, [r6, #116]	; 0x74
 8001d9a:	0798      	lsls	r0, r3, #30
 8001d9c:	f57f af44 	bpl.w	8001c28 <HAL_RCC_OscConfig+0x1c>
 8001da0:	f7ff fba0 	bl	80014e4 <HAL_GetTick>
 8001da4:	1b40      	subs	r0, r0, r5
 8001da6:	2802      	cmp	r0, #2
 8001da8:	d9f6      	bls.n	8001d98 <HAL_RCC_OscConfig+0x18c>
 8001daa:	e772      	b.n	8001c92 <HAL_RCC_OscConfig+0x86>
 8001dac:	4b4a      	ldr	r3, [pc, #296]	; (8001ed8 <HAL_RCC_OscConfig+0x2cc>)
 8001dae:	6c1a      	ldr	r2, [r3, #64]	; 0x40
 8001db0:	f012 5280 	ands.w	r2, r2, #268435456	; 0x10000000
 8001db4:	d128      	bne.n	8001e08 <HAL_RCC_OscConfig+0x1fc>
 8001db6:	9201      	str	r2, [sp, #4]
 8001db8:	6c1a      	ldr	r2, [r3, #64]	; 0x40
 8001dba:	f042 5280 	orr.w	r2, r2, #268435456	; 0x10000000
 8001dbe:	641a      	str	r2, [r3, #64]	; 0x40
 8001dc0:	6c1b      	ldr	r3, [r3, #64]	; 0x40
 8001dc2:	f003 5380 	and.w	r3, r3, #268435456	; 0x10000000
 8001dc6:	9301      	str	r3, [sp, #4]
 8001dc8:	9b01      	ldr	r3, [sp, #4]
 8001dca:	2701      	movs	r7, #1
 8001dcc:	4d45      	ldr	r5, [pc, #276]	; (8001ee4 <HAL_RCC_OscConfig+0x2d8>)
 8001dce:	682b      	ldr	r3, [r5, #0]
 8001dd0:	05d9      	lsls	r1, r3, #23
 8001dd2:	d51b      	bpl.n	8001e0c <HAL_RCC_OscConfig+0x200>
 8001dd4:	68a3      	ldr	r3, [r4, #8]
 8001dd6:	4d40      	ldr	r5, [pc, #256]	; (8001ed8 <HAL_RCC_OscConfig+0x2cc>)
 8001dd8:	2b01      	cmp	r3, #1
 8001dda:	d127      	bne.n	8001e2c <HAL_RCC_OscConfig+0x220>
 8001ddc:	6f2b      	ldr	r3, [r5, #112]	; 0x70
 8001dde:	f043 0301 	orr.w	r3, r3, #1
 8001de2:	672b      	str	r3, [r5, #112]	; 0x70
 8001de4:	f7ff fb7e 	bl	80014e4 <HAL_GetTick>
 8001de8:	4e3b      	ldr	r6, [pc, #236]	; (8001ed8 <HAL_RCC_OscConfig+0x2cc>)
 8001dea:	4605      	mov	r5, r0
 8001dec:	f241 3888 	movw	r8, #5000	; 0x1388
 8001df0:	6f33      	ldr	r3, [r6, #112]	; 0x70
 8001df2:	079b      	lsls	r3, r3, #30
 8001df4:	d539      	bpl.n	8001e6a <HAL_RCC_OscConfig+0x25e>
 8001df6:	2f00      	cmp	r7, #0
 8001df8:	f43f af1a 	beq.w	8001c30 <HAL_RCC_OscConfig+0x24>
 8001dfc:	4a36      	ldr	r2, [pc, #216]	; (8001ed8 <HAL_RCC_OscConfig+0x2cc>)
 8001dfe:	6c13      	ldr	r3, [r2, #64]	; 0x40
 8001e00:	f023 5380 	bic.w	r3, r3, #268435456	; 0x10000000
 8001e04:	6413      	str	r3, [r2, #64]	; 0x40
 8001e06:	e713      	b.n	8001c30 <HAL_RCC_OscConfig+0x24>
 8001e08:	2700      	movs	r7, #0
 8001e0a:	e7df      	b.n	8001dcc <HAL_RCC_OscConfig+0x1c0>
 8001e0c:	682b      	ldr	r3, [r5, #0]
 8001e0e:	f443 7380 	orr.w	r3, r3, #256	; 0x100
 8001e12:	602b      	str	r3, [r5, #0]
 8001e14:	f7ff fb66 	bl	80014e4 <HAL_GetTick>
 8001e18:	4606      	mov	r6, r0
 8001e1a:	682b      	ldr	r3, [r5, #0]
 8001e1c:	05da      	lsls	r2, r3, #23
 8001e1e:	d4d9      	bmi.n	8001dd4 <HAL_RCC_OscConfig+0x1c8>
 8001e20:	f7ff fb60 	bl	80014e4 <HAL_GetTick>
 8001e24:	1b80      	subs	r0, r0, r6
 8001e26:	2802      	cmp	r0, #2
 8001e28:	d9f7      	bls.n	8001e1a <HAL_RCC_OscConfig+0x20e>
 8001e2a:	e732      	b.n	8001c92 <HAL_RCC_OscConfig+0x86>
 8001e2c:	2b05      	cmp	r3, #5
 8001e2e:	d104      	bne.n	8001e3a <HAL_RCC_OscConfig+0x22e>
 8001e30:	6f2b      	ldr	r3, [r5, #112]	; 0x70
 8001e32:	f043 0304 	orr.w	r3, r3, #4
 8001e36:	672b      	str	r3, [r5, #112]	; 0x70
 8001e38:	e7d0      	b.n	8001ddc <HAL_RCC_OscConfig+0x1d0>
 8001e3a:	6f2a      	ldr	r2, [r5, #112]	; 0x70
 8001e3c:	f022 0201 	bic.w	r2, r2, #1
 8001e40:	672a      	str	r2, [r5, #112]	; 0x70
 8001e42:	6f2a      	ldr	r2, [r5, #112]	; 0x70
 8001e44:	f022 0204 	bic.w	r2, r2, #4
 8001e48:	672a      	str	r2, [r5, #112]	; 0x70
 8001e4a:	2b00      	cmp	r3, #0
 8001e4c:	d1ca      	bne.n	8001de4 <HAL_RCC_OscConfig+0x1d8>
 8001e4e:	f7ff fb49 	bl	80014e4 <HAL_GetTick>
 8001e52:	f241 3888 	movw	r8, #5000	; 0x1388
 8001e56:	4606      	mov	r6, r0
 8001e58:	6f2b      	ldr	r3, [r5, #112]	; 0x70
 8001e5a:	0798      	lsls	r0, r3, #30
 8001e5c:	d5cb      	bpl.n	8001df6 <HAL_RCC_OscConfig+0x1ea>
 8001e5e:	f7ff fb41 	bl	80014e4 <HAL_GetTick>
 8001e62:	1b80      	subs	r0, r0, r6
 8001e64:	4540      	cmp	r0, r8
 8001e66:	d9f7      	bls.n	8001e58 <HAL_RCC_OscConfig+0x24c>
 8001e68:	e713      	b.n	8001c92 <HAL_RCC_OscConfig+0x86>
 8001e6a:	f7ff fb3b 	bl	80014e4 <HAL_GetTick>
 8001e6e:	1b40      	subs	r0, r0, r5
 8001e70:	4540      	cmp	r0, r8
 8001e72:	d9bd      	bls.n	8001df0 <HAL_RCC_OscConfig+0x1e4>
 8001e74:	e70d      	b.n	8001c92 <HAL_RCC_OscConfig+0x86>
 8001e76:	4d18      	ldr	r5, [pc, #96]	; (8001ed8 <HAL_RCC_OscConfig+0x2cc>)
 8001e78:	68ab      	ldr	r3, [r5, #8]
 8001e7a:	f003 030c 	and.w	r3, r3, #12
 8001e7e:	2b08      	cmp	r3, #8
 8001e80:	d047      	beq.n	8001f12 <HAL_RCC_OscConfig+0x306>
 8001e82:	4e19      	ldr	r6, [pc, #100]	; (8001ee8 <HAL_RCC_OscConfig+0x2dc>)
 8001e84:	2300      	movs	r3, #0
 8001e86:	2802      	cmp	r0, #2
 8001e88:	6033      	str	r3, [r6, #0]
 8001e8a:	d135      	bne.n	8001ef8 <HAL_RCC_OscConfig+0x2ec>
 8001e8c:	f7ff fb2a 	bl	80014e4 <HAL_GetTick>
 8001e90:	4607      	mov	r7, r0
 8001e92:	682b      	ldr	r3, [r5, #0]
 8001e94:	0199      	lsls	r1, r3, #6
 8001e96:	d429      	bmi.n	8001eec <HAL_RCC_OscConfig+0x2e0>
 8001e98:	e9d4 3207 	ldrd	r3, r2, [r4, #28]
 8001e9c:	4313      	orrs	r3, r2
 8001e9e:	6a62      	ldr	r2, [r4, #36]	; 0x24
 8001ea0:	ea43 1382 	orr.w	r3, r3, r2, lsl #6
 8001ea4:	6ae2      	ldr	r2, [r4, #44]	; 0x2c
 8001ea6:	ea43 6302 	orr.w	r3, r3, r2, lsl #24
 8001eaa:	6aa2      	ldr	r2, [r4, #40]	; 0x28
 8001eac:	0852      	lsrs	r2, r2, #1
 8001eae:	3a01      	subs	r2, #1
 8001eb0:	ea43 4302 	orr.w	r3, r3, r2, lsl #16
 8001eb4:	606b      	str	r3, [r5, #4]
 8001eb6:	2301      	movs	r3, #1
 8001eb8:	6033      	str	r3, [r6, #0]
 8001eba:	f7ff fb13 	bl	80014e4 <HAL_GetTick>
 8001ebe:	4d06      	ldr	r5, [pc, #24]	; (8001ed8 <HAL_RCC_OscConfig+0x2cc>)
 8001ec0:	4604      	mov	r4, r0
 8001ec2:	682b      	ldr	r3, [r5, #0]
 8001ec4:	019a      	lsls	r2, r3, #6
 8001ec6:	f53f aeb7 	bmi.w	8001c38 <HAL_RCC_OscConfig+0x2c>
 8001eca:	f7ff fb0b 	bl	80014e4 <HAL_GetTick>
 8001ece:	1b00      	subs	r0, r0, r4
 8001ed0:	2802      	cmp	r0, #2
 8001ed2:	d9f6      	bls.n	8001ec2 <HAL_RCC_OscConfig+0x2b6>
 8001ed4:	e6dd      	b.n	8001c92 <HAL_RCC_OscConfig+0x86>
 8001ed6:	bf00      	nop
 8001ed8:	40023800 	.word	0x40023800
 8001edc:	42470000 	.word	0x42470000
 8001ee0:	42470e80 	.word	0x42470e80
 8001ee4:	40007000 	.word	0x40007000
 8001ee8:	42470060 	.word	0x42470060
 8001eec:	f7ff fafa 	bl	80014e4 <HAL_GetTick>
 8001ef0:	1bc0      	subs	r0, r0, r7
 8001ef2:	2802      	cmp	r0, #2
 8001ef4:	d9cd      	bls.n	8001e92 <HAL_RCC_OscConfig+0x286>
 8001ef6:	e6cc      	b.n	8001c92 <HAL_RCC_OscConfig+0x86>
 8001ef8:	f7ff faf4 	bl	80014e4 <HAL_GetTick>
 8001efc:	4604      	mov	r4, r0
 8001efe:	682b      	ldr	r3, [r5, #0]
 8001f00:	019b      	lsls	r3, r3, #6
 8001f02:	f57f ae99 	bpl.w	8001c38 <HAL_RCC_OscConfig+0x2c>
 8001f06:	f7ff faed 	bl	80014e4 <HAL_GetTick>
 8001f0a:	1b00      	subs	r0, r0, r4
 8001f0c:	2802      	cmp	r0, #2
 8001f0e:	d9f6      	bls.n	8001efe <HAL_RCC_OscConfig+0x2f2>
 8001f10:	e6bf      	b.n	8001c92 <HAL_RCC_OscConfig+0x86>
 8001f12:	2801      	cmp	r0, #1
 8001f14:	f43f aebe 	beq.w	8001c94 <HAL_RCC_OscConfig+0x88>
 8001f18:	686b      	ldr	r3, [r5, #4]
 8001f1a:	69e2      	ldr	r2, [r4, #28]
 8001f1c:	f403 0180 	and.w	r1, r3, #4194304	; 0x400000
 8001f20:	4291      	cmp	r1, r2
 8001f22:	f47f aea0 	bne.w	8001c66 <HAL_RCC_OscConfig+0x5a>
 8001f26:	6a21      	ldr	r1, [r4, #32]
 8001f28:	f003 023f 	and.w	r2, r3, #63	; 0x3f
 8001f2c:	428a      	cmp	r2, r1
 8001f2e:	f47f ae9a 	bne.w	8001c66 <HAL_RCC_OscConfig+0x5a>
 8001f32:	6a61      	ldr	r1, [r4, #36]	; 0x24
 8001f34:	f647 72c0 	movw	r2, #32704	; 0x7fc0
 8001f38:	401a      	ands	r2, r3
 8001f3a:	ebb2 1f81 	cmp.w	r2, r1, lsl #6
 8001f3e:	f47f ae92 	bne.w	8001c66 <HAL_RCC_OscConfig+0x5a>
 8001f42:	6aa2      	ldr	r2, [r4, #40]	; 0x28
 8001f44:	0852      	lsrs	r2, r2, #1
 8001f46:	f403 3140 	and.w	r1, r3, #196608	; 0x30000
 8001f4a:	3a01      	subs	r2, #1
 8001f4c:	ebb1 4f02 	cmp.w	r1, r2, lsl #16
 8001f50:	f47f ae89 	bne.w	8001c66 <HAL_RCC_OscConfig+0x5a>
 8001f54:	6ae2      	ldr	r2, [r4, #44]	; 0x2c
 8001f56:	f003 6370 	and.w	r3, r3, #251658240	; 0xf000000
 8001f5a:	ebb3 6f02 	cmp.w	r3, r2, lsl #24
 8001f5e:	f43f ae6b 	beq.w	8001c38 <HAL_RCC_OscConfig+0x2c>
 8001f62:	e680      	b.n	8001c66 <HAL_RCC_OscConfig+0x5a>

08001f64 <HAL_RCC_GetSysClockFreq>:
 8001f64:	4913      	ldr	r1, [pc, #76]	; (8001fb4 <HAL_RCC_GetSysClockFreq+0x50>)
 8001f66:	b508      	push	{r3, lr}
 8001f68:	688b      	ldr	r3, [r1, #8]
 8001f6a:	f003 030c 	and.w	r3, r3, #12
 8001f6e:	2b04      	cmp	r3, #4
 8001f70:	d01c      	beq.n	8001fac <HAL_RCC_GetSysClockFreq+0x48>
 8001f72:	2b08      	cmp	r3, #8
 8001f74:	d11c      	bne.n	8001fb0 <HAL_RCC_GetSysClockFreq+0x4c>
 8001f76:	684a      	ldr	r2, [r1, #4]
 8001f78:	684b      	ldr	r3, [r1, #4]
 8001f7a:	6849      	ldr	r1, [r1, #4]
 8001f7c:	f413 0380 	ands.w	r3, r3, #4194304	; 0x400000
 8001f80:	bf14      	ite	ne
 8001f82:	480d      	ldrne	r0, [pc, #52]	; (8001fb8 <HAL_RCC_GetSysClockFreq+0x54>)
 8001f84:	480d      	ldreq	r0, [pc, #52]	; (8001fbc <HAL_RCC_GetSysClockFreq+0x58>)
 8001f86:	f3c1 1188 	ubfx	r1, r1, #6, #9
 8001f8a:	bf18      	it	ne
 8001f8c:	2300      	movne	r3, #0
 8001f8e:	f002 023f 	and.w	r2, r2, #63	; 0x3f
 8001f92:	fba1 0100 	umull	r0, r1, r1, r0
 8001f96:	f7fe f917 	bl	80001c8 <__aeabi_uldivmod>
 8001f9a:	4b06      	ldr	r3, [pc, #24]	; (8001fb4 <HAL_RCC_GetSysClockFreq+0x50>)
 8001f9c:	685b      	ldr	r3, [r3, #4]
 8001f9e:	f3c3 4301 	ubfx	r3, r3, #16, #2
 8001fa2:	3301      	adds	r3, #1
 8001fa4:	005b      	lsls	r3, r3, #1
 8001fa6:	fbb0 f0f3 	udiv	r0, r0, r3
 8001faa:	bd08      	pop	{r3, pc}
 8001fac:	4802      	ldr	r0, [pc, #8]	; (8001fb8 <HAL_RCC_GetSysClockFreq+0x54>)
 8001fae:	e7fc      	b.n	8001faa <HAL_RCC_GetSysClockFreq+0x46>
 8001fb0:	4802      	ldr	r0, [pc, #8]	; (8001fbc <HAL_RCC_GetSysClockFreq+0x58>)
 8001fb2:	e7fa      	b.n	8001faa <HAL_RCC_GetSysClockFreq+0x46>
 8001fb4:	40023800 	.word	0x40023800
 8001fb8:	007a1200 	.word	0x007a1200
 8001fbc:	00f42400 	.word	0x00f42400

08001fc0 <HAL_RCC_ClockConfig>:
 8001fc0:	e92d 41f0 	stmdb	sp!, {r4, r5, r6, r7, r8, lr}
 8001fc4:	460d      	mov	r5, r1
 8001fc6:	4604      	mov	r4, r0
 8001fc8:	b910      	cbnz	r0, 8001fd0 <HAL_RCC_ClockConfig+0x10>
 8001fca:	2001      	movs	r0, #1
 8001fcc:	e8bd 81f0 	ldmia.w	sp!, {r4, r5, r6, r7, r8, pc}
 8001fd0:	4b44      	ldr	r3, [pc, #272]	; (80020e4 <HAL_RCC_ClockConfig+0x124>)
 8001fd2:	681a      	ldr	r2, [r3, #0]
 8001fd4:	f002 0207 	and.w	r2, r2, #7
 8001fd8:	428a      	cmp	r2, r1
 8001fda:	d328      	bcc.n	800202e <HAL_RCC_ClockConfig+0x6e>
 8001fdc:	6822      	ldr	r2, [r4, #0]
 8001fde:	0797      	lsls	r7, r2, #30
 8001fe0:	d42d      	bmi.n	800203e <HAL_RCC_ClockConfig+0x7e>
 8001fe2:	07d0      	lsls	r0, r2, #31
 8001fe4:	d441      	bmi.n	800206a <HAL_RCC_ClockConfig+0xaa>
 8001fe6:	4b3f      	ldr	r3, [pc, #252]	; (80020e4 <HAL_RCC_ClockConfig+0x124>)
 8001fe8:	681a      	ldr	r2, [r3, #0]
 8001fea:	f002 0207 	and.w	r2, r2, #7
 8001fee:	42aa      	cmp	r2, r5
 8001ff0:	d866      	bhi.n	80020c0 <HAL_RCC_ClockConfig+0x100>
 8001ff2:	6822      	ldr	r2, [r4, #0]
 8001ff4:	0751      	lsls	r1, r2, #29
 8001ff6:	d46c      	bmi.n	80020d2 <HAL_RCC_ClockConfig+0x112>
 8001ff8:	0713      	lsls	r3, r2, #28
 8001ffa:	d507      	bpl.n	800200c <HAL_RCC_ClockConfig+0x4c>
 8001ffc:	4a3a      	ldr	r2, [pc, #232]	; (80020e8 <HAL_RCC_ClockConfig+0x128>)
 8001ffe:	6921      	ldr	r1, [r4, #16]
 8002000:	6893      	ldr	r3, [r2, #8]
 8002002:	f423 4360 	bic.w	r3, r3, #57344	; 0xe000
 8002006:	ea43 03c1 	orr.w	r3, r3, r1, lsl #3
 800200a:	6093      	str	r3, [r2, #8]
 800200c:	f7ff ffaa 	bl	8001f64 <HAL_RCC_GetSysClockFreq>
 8002010:	4b35      	ldr	r3, [pc, #212]	; (80020e8 <HAL_RCC_ClockConfig+0x128>)
 8002012:	4a36      	ldr	r2, [pc, #216]	; (80020ec <HAL_RCC_ClockConfig+0x12c>)
 8002014:	689b      	ldr	r3, [r3, #8]
 8002016:	f3c3 1303 	ubfx	r3, r3, #4, #4
 800201a:	5cd3      	ldrb	r3, [r2, r3]
 800201c:	40d8      	lsrs	r0, r3
 800201e:	4b34      	ldr	r3, [pc, #208]	; (80020f0 <HAL_RCC_ClockConfig+0x130>)
 8002020:	6018      	str	r0, [r3, #0]
 8002022:	4b34      	ldr	r3, [pc, #208]	; (80020f4 <HAL_RCC_ClockConfig+0x134>)
 8002024:	6818      	ldr	r0, [r3, #0]
 8002026:	f7ff fa13 	bl	8001450 <HAL_InitTick>
 800202a:	2000      	movs	r0, #0
 800202c:	e7ce      	b.n	8001fcc <HAL_RCC_ClockConfig+0xc>
 800202e:	b2ca      	uxtb	r2, r1
 8002030:	701a      	strb	r2, [r3, #0]
 8002032:	681b      	ldr	r3, [r3, #0]
 8002034:	f003 0307 	and.w	r3, r3, #7
 8002038:	428b      	cmp	r3, r1
 800203a:	d1c6      	bne.n	8001fca <HAL_RCC_ClockConfig+0xa>
 800203c:	e7ce      	b.n	8001fdc <HAL_RCC_ClockConfig+0x1c>
 800203e:	4b2a      	ldr	r3, [pc, #168]	; (80020e8 <HAL_RCC_ClockConfig+0x128>)
 8002040:	f012 0f04 	tst.w	r2, #4
 8002044:	bf1e      	ittt	ne
 8002046:	6899      	ldrne	r1, [r3, #8]
 8002048:	f441 51e0 	orrne.w	r1, r1, #7168	; 0x1c00
 800204c:	6099      	strne	r1, [r3, #8]
 800204e:	0716      	lsls	r6, r2, #28
 8002050:	bf42      	ittt	mi
 8002052:	6899      	ldrmi	r1, [r3, #8]
 8002054:	f441 4160 	orrmi.w	r1, r1, #57344	; 0xe000
 8002058:	6099      	strmi	r1, [r3, #8]
 800205a:	4923      	ldr	r1, [pc, #140]	; (80020e8 <HAL_RCC_ClockConfig+0x128>)
 800205c:	68a0      	ldr	r0, [r4, #8]
 800205e:	688b      	ldr	r3, [r1, #8]
 8002060:	f023 03f0 	bic.w	r3, r3, #240	; 0xf0
 8002064:	4303      	orrs	r3, r0
 8002066:	608b      	str	r3, [r1, #8]
 8002068:	e7bb      	b.n	8001fe2 <HAL_RCC_ClockConfig+0x22>
 800206a:	6862      	ldr	r2, [r4, #4]
 800206c:	4b1e      	ldr	r3, [pc, #120]	; (80020e8 <HAL_RCC_ClockConfig+0x128>)
 800206e:	2a01      	cmp	r2, #1
 8002070:	d11c      	bne.n	80020ac <HAL_RCC_ClockConfig+0xec>
 8002072:	681b      	ldr	r3, [r3, #0]
 8002074:	f413 3f00 	tst.w	r3, #131072	; 0x20000
 8002078:	d0a7      	beq.n	8001fca <HAL_RCC_ClockConfig+0xa>
 800207a:	4e1b      	ldr	r6, [pc, #108]	; (80020e8 <HAL_RCC_ClockConfig+0x128>)
 800207c:	68b3      	ldr	r3, [r6, #8]
 800207e:	f023 0303 	bic.w	r3, r3, #3
 8002082:	4313      	orrs	r3, r2
 8002084:	60b3      	str	r3, [r6, #8]
 8002086:	f7ff fa2d 	bl	80014e4 <HAL_GetTick>
 800208a:	f241 3888 	movw	r8, #5000	; 0x1388
 800208e:	4607      	mov	r7, r0
 8002090:	68b3      	ldr	r3, [r6, #8]
 8002092:	6862      	ldr	r2, [r4, #4]
 8002094:	f003 030c 	and.w	r3, r3, #12
 8002098:	ebb3 0f82 	cmp.w	r3, r2, lsl #2
 800209c:	d0a3      	beq.n	8001fe6 <HAL_RCC_ClockConfig+0x26>
 800209e:	f7ff fa21 	bl	80014e4 <HAL_GetTick>
 80020a2:	1bc0      	subs	r0, r0, r7
 80020a4:	4540      	cmp	r0, r8
 80020a6:	d9f3      	bls.n	8002090 <HAL_RCC_ClockConfig+0xd0>
 80020a8:	2003      	movs	r0, #3
 80020aa:	e78f      	b.n	8001fcc <HAL_RCC_ClockConfig+0xc>
 80020ac:	1e91      	subs	r1, r2, #2
 80020ae:	2901      	cmp	r1, #1
 80020b0:	681b      	ldr	r3, [r3, #0]
 80020b2:	d802      	bhi.n	80020ba <HAL_RCC_ClockConfig+0xfa>
 80020b4:	f013 7f00 	tst.w	r3, #33554432	; 0x2000000
 80020b8:	e7de      	b.n	8002078 <HAL_RCC_ClockConfig+0xb8>
 80020ba:	f013 0f02 	tst.w	r3, #2
 80020be:	e7db      	b.n	8002078 <HAL_RCC_ClockConfig+0xb8>
 80020c0:	b2ea      	uxtb	r2, r5
 80020c2:	701a      	strb	r2, [r3, #0]
 80020c4:	681b      	ldr	r3, [r3, #0]
 80020c6:	f003 0307 	and.w	r3, r3, #7
 80020ca:	42ab      	cmp	r3, r5
 80020cc:	f47f af7d 	bne.w	8001fca <HAL_RCC_ClockConfig+0xa>
 80020d0:	e78f      	b.n	8001ff2 <HAL_RCC_ClockConfig+0x32>
 80020d2:	4905      	ldr	r1, [pc, #20]	; (80020e8 <HAL_RCC_ClockConfig+0x128>)
 80020d4:	68e0      	ldr	r0, [r4, #12]
 80020d6:	688b      	ldr	r3, [r1, #8]
 80020d8:	f423 53e0 	bic.w	r3, r3, #7168	; 0x1c00
 80020dc:	4303      	orrs	r3, r0
 80020de:	608b      	str	r3, [r1, #8]
 80020e0:	e78a      	b.n	8001ff8 <HAL_RCC_ClockConfig+0x38>
 80020e2:	bf00      	nop
 80020e4:	40023c00 	.word	0x40023c00
 80020e8:	40023800 	.word	0x40023800
 80020ec:	08003dac 	.word	0x08003dac
 80020f0:	20000004 	.word	0x20000004
 80020f4:	2000000c 	.word	0x2000000c

080020f8 <HAL_RCC_GetPCLK1Freq>:
 80020f8:	4b04      	ldr	r3, [pc, #16]	; (800210c <HAL_RCC_GetPCLK1Freq+0x14>)
 80020fa:	4a05      	ldr	r2, [pc, #20]	; (8002110 <HAL_RCC_GetPCLK1Freq+0x18>)
 80020fc:	689b      	ldr	r3, [r3, #8]
 80020fe:	f3c3 2382 	ubfx	r3, r3, #10, #3
 8002102:	5cd3      	ldrb	r3, [r2, r3]
 8002104:	4a03      	ldr	r2, [pc, #12]	; (8002114 <HAL_RCC_GetPCLK1Freq+0x1c>)
 8002106:	6810      	ldr	r0, [r2, #0]
 8002108:	40d8      	lsrs	r0, r3
 800210a:	4770      	bx	lr
 800210c:	40023800 	.word	0x40023800
 8002110:	08003dbc 	.word	0x08003dbc
 8002114:	20000004 	.word	0x20000004

08002118 <HAL_RCC_GetPCLK2Freq>:
 8002118:	4b04      	ldr	r3, [pc, #16]	; (800212c <HAL_RCC_GetPCLK2Freq+0x14>)
 800211a:	4a05      	ldr	r2, [pc, #20]	; (8002130 <HAL_RCC_GetPCLK2Freq+0x18>)
 800211c:	689b      	ldr	r3, [r3, #8]
 800211e:	f3c3 3342 	ubfx	r3, r3, #13, #3
 8002122:	5cd3      	ldrb	r3, [r2, r3]
 8002124:	4a03      	ldr	r2, [pc, #12]	; (8002134 <HAL_RCC_GetPCLK2Freq+0x1c>)
 8002126:	6810      	ldr	r0, [r2, #0]
 8002128:	40d8      	lsrs	r0, r3
 800212a:	4770      	bx	lr
 800212c:	40023800 	.word	0x40023800
 8002130:	08003dbc 	.word	0x08003dbc
 8002134:	20000004 	.word	0x20000004

08002138 <SPI_WaitFlagStateUntilTimeout.constprop.0>:
 8002138:	e92d 41f3 	stmdb	sp!, {r0, r1, r4, r5, r6, r7, r8, lr}
 800213c:	461d      	mov	r5, r3
 800213e:	4617      	mov	r7, r2
 8002140:	4688      	mov	r8, r1
 8002142:	4606      	mov	r6, r0
 8002144:	f7ff f9ce 	bl	80014e4 <HAL_GetTick>
 8002148:	443d      	add	r5, r7
 800214a:	1a2c      	subs	r4, r5, r0
 800214c:	f7ff f9ca 	bl	80014e4 <HAL_GetTick>
 8002150:	4b22      	ldr	r3, [pc, #136]	; (80021dc <SPI_WaitFlagStateUntilTimeout.constprop.0+0xa4>)
 8002152:	681b      	ldr	r3, [r3, #0]
 8002154:	f3c3 33cb 	ubfx	r3, r3, #15, #12
 8002158:	4605      	mov	r5, r0
 800215a:	4363      	muls	r3, r4
 800215c:	6832      	ldr	r2, [r6, #0]
 800215e:	9301      	str	r3, [sp, #4]
 8002160:	6893      	ldr	r3, [r2, #8]
 8002162:	ea38 0303 	bics.w	r3, r8, r3
 8002166:	d001      	beq.n	800216c <SPI_WaitFlagStateUntilTimeout.constprop.0+0x34>
 8002168:	2000      	movs	r0, #0
 800216a:	e02d      	b.n	80021c8 <SPI_WaitFlagStateUntilTimeout.constprop.0+0x90>
 800216c:	1c7b      	adds	r3, r7, #1
 800216e:	d0f7      	beq.n	8002160 <SPI_WaitFlagStateUntilTimeout.constprop.0+0x28>
 8002170:	f7ff f9b8 	bl	80014e4 <HAL_GetTick>
 8002174:	1b40      	subs	r0, r0, r5
 8002176:	42a0      	cmp	r0, r4
 8002178:	d329      	bcc.n	80021ce <SPI_WaitFlagStateUntilTimeout.constprop.0+0x96>
 800217a:	6833      	ldr	r3, [r6, #0]
 800217c:	685a      	ldr	r2, [r3, #4]
 800217e:	f022 02e0 	bic.w	r2, r2, #224	; 0xe0
 8002182:	605a      	str	r2, [r3, #4]
 8002184:	6872      	ldr	r2, [r6, #4]
 8002186:	f5b2 7f82 	cmp.w	r2, #260	; 0x104
 800218a:	d10a      	bne.n	80021a2 <SPI_WaitFlagStateUntilTimeout.constprop.0+0x6a>
 800218c:	68b2      	ldr	r2, [r6, #8]
 800218e:	f5b2 4f00 	cmp.w	r2, #32768	; 0x8000
 8002192:	d002      	beq.n	800219a <SPI_WaitFlagStateUntilTimeout.constprop.0+0x62>
 8002194:	f5b2 6f80 	cmp.w	r2, #1024	; 0x400
 8002198:	d103      	bne.n	80021a2 <SPI_WaitFlagStateUntilTimeout.constprop.0+0x6a>
 800219a:	681a      	ldr	r2, [r3, #0]
 800219c:	f022 0240 	bic.w	r2, r2, #64	; 0x40
 80021a0:	601a      	str	r2, [r3, #0]
 80021a2:	6ab2      	ldr	r2, [r6, #40]	; 0x28
 80021a4:	f5b2 5f00 	cmp.w	r2, #8192	; 0x2000
 80021a8:	d107      	bne.n	80021ba <SPI_WaitFlagStateUntilTimeout.constprop.0+0x82>
 80021aa:	681a      	ldr	r2, [r3, #0]
 80021ac:	f422 5200 	bic.w	r2, r2, #8192	; 0x2000
 80021b0:	601a      	str	r2, [r3, #0]
 80021b2:	681a      	ldr	r2, [r3, #0]
 80021b4:	f442 5200 	orr.w	r2, r2, #8192	; 0x2000
 80021b8:	601a      	str	r2, [r3, #0]
 80021ba:	2301      	movs	r3, #1
 80021bc:	f886 3051 	strb.w	r3, [r6, #81]	; 0x51
 80021c0:	2300      	movs	r3, #0
 80021c2:	f886 3050 	strb.w	r3, [r6, #80]	; 0x50
 80021c6:	2003      	movs	r0, #3
 80021c8:	b002      	add	sp, #8
 80021ca:	e8bd 81f0 	ldmia.w	sp!, {r4, r5, r6, r7, r8, pc}
 80021ce:	9b01      	ldr	r3, [sp, #4]
 80021d0:	2b00      	cmp	r3, #0
 80021d2:	9b01      	ldr	r3, [sp, #4]
 80021d4:	bf08      	it	eq
 80021d6:	2400      	moveq	r4, #0
 80021d8:	3b01      	subs	r3, #1
 80021da:	e7bf      	b.n	800215c <SPI_WaitFlagStateUntilTimeout.constprop.0+0x24>
 80021dc:	20000004 	.word	0x20000004

080021e0 <SPI_EndRxTxTransaction>:
 80021e0:	b537      	push	{r0, r1, r2, r4, r5, lr}
 80021e2:	4613      	mov	r3, r2
 80021e4:	4a12      	ldr	r2, [pc, #72]	; (8002230 <SPI_EndRxTxTransaction+0x50>)
 80021e6:	4d13      	ldr	r5, [pc, #76]	; (8002234 <SPI_EndRxTxTransaction+0x54>)
 80021e8:	6812      	ldr	r2, [r2, #0]
 80021ea:	fbb2 f5f5 	udiv	r5, r2, r5
 80021ee:	f44f 727a 	mov.w	r2, #1000	; 0x3e8
 80021f2:	436a      	muls	r2, r5
 80021f4:	9201      	str	r2, [sp, #4]
 80021f6:	6842      	ldr	r2, [r0, #4]
 80021f8:	f5b2 7f82 	cmp.w	r2, #260	; 0x104
 80021fc:	4604      	mov	r4, r0
 80021fe:	d10b      	bne.n	8002218 <SPI_EndRxTxTransaction+0x38>
 8002200:	460a      	mov	r2, r1
 8002202:	2180      	movs	r1, #128	; 0x80
 8002204:	f7ff ff98 	bl	8002138 <SPI_WaitFlagStateUntilTimeout.constprop.0>
 8002208:	b178      	cbz	r0, 800222a <SPI_EndRxTxTransaction+0x4a>
 800220a:	6d63      	ldr	r3, [r4, #84]	; 0x54
 800220c:	f043 0320 	orr.w	r3, r3, #32
 8002210:	6563      	str	r3, [r4, #84]	; 0x54
 8002212:	2003      	movs	r0, #3
 8002214:	b003      	add	sp, #12
 8002216:	bd30      	pop	{r4, r5, pc}
 8002218:	9b01      	ldr	r3, [sp, #4]
 800221a:	b133      	cbz	r3, 800222a <SPI_EndRxTxTransaction+0x4a>
 800221c:	9b01      	ldr	r3, [sp, #4]
 800221e:	3b01      	subs	r3, #1
 8002220:	9301      	str	r3, [sp, #4]
 8002222:	6823      	ldr	r3, [r4, #0]
 8002224:	689b      	ldr	r3, [r3, #8]
 8002226:	061b      	lsls	r3, r3, #24
 8002228:	d4f6      	bmi.n	8002218 <SPI_EndRxTxTransaction+0x38>
 800222a:	2000      	movs	r0, #0
 800222c:	e7f2      	b.n	8002214 <SPI_EndRxTxTransaction+0x34>
 800222e:	bf00      	nop
 8002230:	20000004 	.word	0x20000004
 8002234:	016e3600 	.word	0x016e3600

08002238 <HAL_SPI_Init>:
 8002238:	b510      	push	{r4, lr}
 800223a:	4604      	mov	r4, r0
 800223c:	2800      	cmp	r0, #0
 800223e:	d055      	beq.n	80022ec <HAL_SPI_Init+0xb4>
 8002240:	6a43      	ldr	r3, [r0, #36]	; 0x24
 8002242:	2b00      	cmp	r3, #0
 8002244:	d14e      	bne.n	80022e4 <HAL_SPI_Init+0xac>
 8002246:	6842      	ldr	r2, [r0, #4]
 8002248:	f5b2 7f82 	cmp.w	r2, #260	; 0x104
 800224c:	d000      	beq.n	8002250 <HAL_SPI_Init+0x18>
 800224e:	61c3      	str	r3, [r0, #28]
 8002250:	2300      	movs	r3, #0
 8002252:	62a3      	str	r3, [r4, #40]	; 0x28
 8002254:	f894 3051 	ldrb.w	r3, [r4, #81]	; 0x51
 8002258:	f003 02ff 	and.w	r2, r3, #255	; 0xff
 800225c:	b923      	cbnz	r3, 8002268 <HAL_SPI_Init+0x30>
 800225e:	f884 2050 	strb.w	r2, [r4, #80]	; 0x50
 8002262:	4620      	mov	r0, r4
 8002264:	f7fe fef4 	bl	8001050 <HAL_SPI_MspInit>
 8002268:	6821      	ldr	r1, [r4, #0]
 800226a:	68a0      	ldr	r0, [r4, #8]
 800226c:	69a2      	ldr	r2, [r4, #24]
 800226e:	2302      	movs	r3, #2
 8002270:	f884 3051 	strb.w	r3, [r4, #81]	; 0x51
 8002274:	680b      	ldr	r3, [r1, #0]
 8002276:	f023 0340 	bic.w	r3, r3, #64	; 0x40
 800227a:	600b      	str	r3, [r1, #0]
 800227c:	6863      	ldr	r3, [r4, #4]
 800227e:	f400 4004 	and.w	r0, r0, #33792	; 0x8400
 8002282:	f403 7382 	and.w	r3, r3, #260	; 0x104
 8002286:	4303      	orrs	r3, r0
 8002288:	68e0      	ldr	r0, [r4, #12]
 800228a:	f400 6000 	and.w	r0, r0, #2048	; 0x800
 800228e:	4303      	orrs	r3, r0
 8002290:	6920      	ldr	r0, [r4, #16]
 8002292:	f000 0002 	and.w	r0, r0, #2
 8002296:	4303      	orrs	r3, r0
 8002298:	6960      	ldr	r0, [r4, #20]
 800229a:	f000 0001 	and.w	r0, r0, #1
 800229e:	4303      	orrs	r3, r0
 80022a0:	f402 7000 	and.w	r0, r2, #512	; 0x200
 80022a4:	4303      	orrs	r3, r0
 80022a6:	69e0      	ldr	r0, [r4, #28]
 80022a8:	f000 0038 	and.w	r0, r0, #56	; 0x38
 80022ac:	4303      	orrs	r3, r0
 80022ae:	6a20      	ldr	r0, [r4, #32]
 80022b0:	f000 0080 	and.w	r0, r0, #128	; 0x80
 80022b4:	4303      	orrs	r3, r0
 80022b6:	6aa0      	ldr	r0, [r4, #40]	; 0x28
 80022b8:	f400 5000 	and.w	r0, r0, #8192	; 0x2000
 80022bc:	4303      	orrs	r3, r0
 80022be:	600b      	str	r3, [r1, #0]
 80022c0:	6a63      	ldr	r3, [r4, #36]	; 0x24
 80022c2:	0c12      	lsrs	r2, r2, #16
 80022c4:	f003 0310 	and.w	r3, r3, #16
 80022c8:	f002 0204 	and.w	r2, r2, #4
 80022cc:	431a      	orrs	r2, r3
 80022ce:	604a      	str	r2, [r1, #4]
 80022d0:	69cb      	ldr	r3, [r1, #28]
 80022d2:	f423 6300 	bic.w	r3, r3, #2048	; 0x800
 80022d6:	61cb      	str	r3, [r1, #28]
 80022d8:	2000      	movs	r0, #0
 80022da:	2301      	movs	r3, #1
 80022dc:	6560      	str	r0, [r4, #84]	; 0x54
 80022de:	f884 3051 	strb.w	r3, [r4, #81]	; 0x51
 80022e2:	bd10      	pop	{r4, pc}
 80022e4:	2300      	movs	r3, #0
 80022e6:	e9c0 3304 	strd	r3, r3, [r0, #16]
 80022ea:	e7b1      	b.n	8002250 <HAL_SPI_Init+0x18>
 80022ec:	2001      	movs	r0, #1
 80022ee:	e7f8      	b.n	80022e2 <HAL_SPI_Init+0xaa>

080022f0 <HAL_SPI_Transmit>:
 80022f0:	e92d 43f7 	stmdb	sp!, {r0, r1, r2, r4, r5, r6, r7, r8, r9, lr}
 80022f4:	461f      	mov	r7, r3
 80022f6:	f890 3050 	ldrb.w	r3, [r0, #80]	; 0x50
 80022fa:	2b01      	cmp	r3, #1
 80022fc:	4604      	mov	r4, r0
 80022fe:	460d      	mov	r5, r1
 8002300:	4690      	mov	r8, r2
 8002302:	f000 80a0 	beq.w	8002446 <HAL_SPI_Transmit+0x156>
 8002306:	2301      	movs	r3, #1
 8002308:	f880 3050 	strb.w	r3, [r0, #80]	; 0x50
 800230c:	f7ff f8ea 	bl	80014e4 <HAL_GetTick>
 8002310:	f894 3051 	ldrb.w	r3, [r4, #81]	; 0x51
 8002314:	2b01      	cmp	r3, #1
 8002316:	4681      	mov	r9, r0
 8002318:	b2d8      	uxtb	r0, r3
 800231a:	f040 8092 	bne.w	8002442 <HAL_SPI_Transmit+0x152>
 800231e:	2d00      	cmp	r5, #0
 8002320:	d061      	beq.n	80023e6 <HAL_SPI_Transmit+0xf6>
 8002322:	f1b8 0f00 	cmp.w	r8, #0
 8002326:	d05e      	beq.n	80023e6 <HAL_SPI_Transmit+0xf6>
 8002328:	2303      	movs	r3, #3
 800232a:	f884 3051 	strb.w	r3, [r4, #81]	; 0x51
 800232e:	2300      	movs	r3, #0
 8002330:	6563      	str	r3, [r4, #84]	; 0x54
 8002332:	e9c4 3310 	strd	r3, r3, [r4, #64]	; 0x40
 8002336:	f8a4 8036 	strh.w	r8, [r4, #54]	; 0x36
 800233a:	63a3      	str	r3, [r4, #56]	; 0x38
 800233c:	87a3      	strh	r3, [r4, #60]	; 0x3c
 800233e:	87e3      	strh	r3, [r4, #62]	; 0x3e
 8002340:	68a3      	ldr	r3, [r4, #8]
 8002342:	6826      	ldr	r6, [r4, #0]
 8002344:	6325      	str	r5, [r4, #48]	; 0x30
 8002346:	f5b3 4f00 	cmp.w	r3, #32768	; 0x8000
 800234a:	f8a4 8034 	strh.w	r8, [r4, #52]	; 0x34
 800234e:	d107      	bne.n	8002360 <HAL_SPI_Transmit+0x70>
 8002350:	6833      	ldr	r3, [r6, #0]
 8002352:	f023 0340 	bic.w	r3, r3, #64	; 0x40
 8002356:	6033      	str	r3, [r6, #0]
 8002358:	6833      	ldr	r3, [r6, #0]
 800235a:	f443 4380 	orr.w	r3, r3, #16384	; 0x4000
 800235e:	6033      	str	r3, [r6, #0]
 8002360:	6833      	ldr	r3, [r6, #0]
 8002362:	68e2      	ldr	r2, [r4, #12]
 8002364:	065b      	lsls	r3, r3, #25
 8002366:	bf5e      	ittt	pl
 8002368:	6833      	ldrpl	r3, [r6, #0]
 800236a:	f043 0340 	orrpl.w	r3, r3, #64	; 0x40
 800236e:	6033      	strpl	r3, [r6, #0]
 8002370:	f5b2 6f00 	cmp.w	r2, #2048	; 0x800
 8002374:	6863      	ldr	r3, [r4, #4]
 8002376:	d13f      	bne.n	80023f8 <HAL_SPI_Transmit+0x108>
 8002378:	b113      	cbz	r3, 8002380 <HAL_SPI_Transmit+0x90>
 800237a:	f1b8 0f01 	cmp.w	r8, #1
 800237e:	d107      	bne.n	8002390 <HAL_SPI_Transmit+0xa0>
 8002380:	f835 3b02 	ldrh.w	r3, [r5], #2
 8002384:	60f3      	str	r3, [r6, #12]
 8002386:	6325      	str	r5, [r4, #48]	; 0x30
 8002388:	8ee3      	ldrh	r3, [r4, #54]	; 0x36
 800238a:	3b01      	subs	r3, #1
 800238c:	b29b      	uxth	r3, r3
 800238e:	86e3      	strh	r3, [r4, #54]	; 0x36
 8002390:	8ee3      	ldrh	r3, [r4, #54]	; 0x36
 8002392:	b29b      	uxth	r3, r3
 8002394:	b9a3      	cbnz	r3, 80023c0 <HAL_SPI_Transmit+0xd0>
 8002396:	464a      	mov	r2, r9
 8002398:	4639      	mov	r1, r7
 800239a:	4620      	mov	r0, r4
 800239c:	f7ff ff20 	bl	80021e0 <SPI_EndRxTxTransaction>
 80023a0:	2800      	cmp	r0, #0
 80023a2:	d14b      	bne.n	800243c <HAL_SPI_Transmit+0x14c>
 80023a4:	68a3      	ldr	r3, [r4, #8]
 80023a6:	b933      	cbnz	r3, 80023b6 <HAL_SPI_Transmit+0xc6>
 80023a8:	9301      	str	r3, [sp, #4]
 80023aa:	6823      	ldr	r3, [r4, #0]
 80023ac:	68da      	ldr	r2, [r3, #12]
 80023ae:	9201      	str	r2, [sp, #4]
 80023b0:	689b      	ldr	r3, [r3, #8]
 80023b2:	9301      	str	r3, [sp, #4]
 80023b4:	9b01      	ldr	r3, [sp, #4]
 80023b6:	6d60      	ldr	r0, [r4, #84]	; 0x54
 80023b8:	3800      	subs	r0, #0
 80023ba:	bf18      	it	ne
 80023bc:	2001      	movne	r0, #1
 80023be:	e012      	b.n	80023e6 <HAL_SPI_Transmit+0xf6>
 80023c0:	6822      	ldr	r2, [r4, #0]
 80023c2:	6893      	ldr	r3, [r2, #8]
 80023c4:	0798      	lsls	r0, r3, #30
 80023c6:	d505      	bpl.n	80023d4 <HAL_SPI_Transmit+0xe4>
 80023c8:	6b23      	ldr	r3, [r4, #48]	; 0x30
 80023ca:	f833 1b02 	ldrh.w	r1, [r3], #2
 80023ce:	60d1      	str	r1, [r2, #12]
 80023d0:	6323      	str	r3, [r4, #48]	; 0x30
 80023d2:	e7d9      	b.n	8002388 <HAL_SPI_Transmit+0x98>
 80023d4:	f7ff f886 	bl	80014e4 <HAL_GetTick>
 80023d8:	eba0 0009 	sub.w	r0, r0, r9
 80023dc:	42b8      	cmp	r0, r7
 80023de:	d3d7      	bcc.n	8002390 <HAL_SPI_Transmit+0xa0>
 80023e0:	1c79      	adds	r1, r7, #1
 80023e2:	d0d5      	beq.n	8002390 <HAL_SPI_Transmit+0xa0>
 80023e4:	2003      	movs	r0, #3
 80023e6:	2301      	movs	r3, #1
 80023e8:	f884 3051 	strb.w	r3, [r4, #81]	; 0x51
 80023ec:	2300      	movs	r3, #0
 80023ee:	f884 3050 	strb.w	r3, [r4, #80]	; 0x50
 80023f2:	b003      	add	sp, #12
 80023f4:	e8bd 83f0 	ldmia.w	sp!, {r4, r5, r6, r7, r8, r9, pc}
 80023f8:	b113      	cbz	r3, 8002400 <HAL_SPI_Transmit+0x110>
 80023fa:	f1b8 0f01 	cmp.w	r8, #1
 80023fe:	d108      	bne.n	8002412 <HAL_SPI_Transmit+0x122>
 8002400:	782b      	ldrb	r3, [r5, #0]
 8002402:	7333      	strb	r3, [r6, #12]
 8002404:	6b23      	ldr	r3, [r4, #48]	; 0x30
 8002406:	3301      	adds	r3, #1
 8002408:	6323      	str	r3, [r4, #48]	; 0x30
 800240a:	8ee3      	ldrh	r3, [r4, #54]	; 0x36
 800240c:	3b01      	subs	r3, #1
 800240e:	b29b      	uxth	r3, r3
 8002410:	86e3      	strh	r3, [r4, #54]	; 0x36
 8002412:	8ee3      	ldrh	r3, [r4, #54]	; 0x36
 8002414:	b29b      	uxth	r3, r3
 8002416:	2b00      	cmp	r3, #0
 8002418:	d0bd      	beq.n	8002396 <HAL_SPI_Transmit+0xa6>
 800241a:	6823      	ldr	r3, [r4, #0]
 800241c:	689a      	ldr	r2, [r3, #8]
 800241e:	0792      	lsls	r2, r2, #30
 8002420:	d503      	bpl.n	800242a <HAL_SPI_Transmit+0x13a>
 8002422:	6b22      	ldr	r2, [r4, #48]	; 0x30
 8002424:	7812      	ldrb	r2, [r2, #0]
 8002426:	731a      	strb	r2, [r3, #12]
 8002428:	e7ec      	b.n	8002404 <HAL_SPI_Transmit+0x114>
 800242a:	f7ff f85b 	bl	80014e4 <HAL_GetTick>
 800242e:	eba0 0009 	sub.w	r0, r0, r9
 8002432:	42b8      	cmp	r0, r7
 8002434:	d3ed      	bcc.n	8002412 <HAL_SPI_Transmit+0x122>
 8002436:	1c7b      	adds	r3, r7, #1
 8002438:	d0eb      	beq.n	8002412 <HAL_SPI_Transmit+0x122>
 800243a:	e7d3      	b.n	80023e4 <HAL_SPI_Transmit+0xf4>
 800243c:	2320      	movs	r3, #32
 800243e:	6563      	str	r3, [r4, #84]	; 0x54
 8002440:	e7b0      	b.n	80023a4 <HAL_SPI_Transmit+0xb4>
 8002442:	2002      	movs	r0, #2
 8002444:	e7cf      	b.n	80023e6 <HAL_SPI_Transmit+0xf6>
 8002446:	2002      	movs	r0, #2
 8002448:	e7d3      	b.n	80023f2 <HAL_SPI_Transmit+0x102>
	...

0800244c <HAL_SPI_Transmit_DMA>:
 800244c:	b538      	push	{r3, r4, r5, lr}
 800244e:	f890 3050 	ldrb.w	r3, [r0, #80]	; 0x50
 8002452:	2b01      	cmp	r3, #1
 8002454:	4604      	mov	r4, r0
 8002456:	d054      	beq.n	8002502 <HAL_SPI_Transmit_DMA+0xb6>
 8002458:	2301      	movs	r3, #1
 800245a:	f880 3050 	strb.w	r3, [r0, #80]	; 0x50
 800245e:	f890 3051 	ldrb.w	r3, [r0, #81]	; 0x51
 8002462:	2b01      	cmp	r3, #1
 8002464:	b2dd      	uxtb	r5, r3
 8002466:	d14a      	bne.n	80024fe <HAL_SPI_Transmit_DMA+0xb2>
 8002468:	2900      	cmp	r1, #0
 800246a:	d031      	beq.n	80024d0 <HAL_SPI_Transmit_DMA+0x84>
 800246c:	2a00      	cmp	r2, #0
 800246e:	d02f      	beq.n	80024d0 <HAL_SPI_Transmit_DMA+0x84>
 8002470:	2303      	movs	r3, #3
 8002472:	f880 3051 	strb.w	r3, [r0, #81]	; 0x51
 8002476:	2300      	movs	r3, #0
 8002478:	6543      	str	r3, [r0, #84]	; 0x54
 800247a:	e9c0 3310 	strd	r3, r3, [r0, #64]	; 0x40
 800247e:	86c2      	strh	r2, [r0, #54]	; 0x36
 8002480:	6383      	str	r3, [r0, #56]	; 0x38
 8002482:	8783      	strh	r3, [r0, #60]	; 0x3c
 8002484:	87c3      	strh	r3, [r0, #62]	; 0x3e
 8002486:	6883      	ldr	r3, [r0, #8]
 8002488:	8682      	strh	r2, [r0, #52]	; 0x34
 800248a:	f5b3 4f00 	cmp.w	r3, #32768	; 0x8000
 800248e:	6802      	ldr	r2, [r0, #0]
 8002490:	6301      	str	r1, [r0, #48]	; 0x30
 8002492:	d107      	bne.n	80024a4 <HAL_SPI_Transmit_DMA+0x58>
 8002494:	6813      	ldr	r3, [r2, #0]
 8002496:	f023 0340 	bic.w	r3, r3, #64	; 0x40
 800249a:	6013      	str	r3, [r2, #0]
 800249c:	6813      	ldr	r3, [r2, #0]
 800249e:	f443 4380 	orr.w	r3, r3, #16384	; 0x4000
 80024a2:	6013      	str	r3, [r2, #0]
 80024a4:	6ca0      	ldr	r0, [r4, #72]	; 0x48
 80024a6:	4b18      	ldr	r3, [pc, #96]	; (8002508 <HAL_SPI_Transmit_DMA+0xbc>)
 80024a8:	6403      	str	r3, [r0, #64]	; 0x40
 80024aa:	4b18      	ldr	r3, [pc, #96]	; (800250c <HAL_SPI_Transmit_DMA+0xc0>)
 80024ac:	63c3      	str	r3, [r0, #60]	; 0x3c
 80024ae:	4b18      	ldr	r3, [pc, #96]	; (8002510 <HAL_SPI_Transmit_DMA+0xc4>)
 80024b0:	64c3      	str	r3, [r0, #76]	; 0x4c
 80024b2:	2300      	movs	r3, #0
 80024b4:	6503      	str	r3, [r0, #80]	; 0x50
 80024b6:	8ee3      	ldrh	r3, [r4, #54]	; 0x36
 80024b8:	320c      	adds	r2, #12
 80024ba:	b29b      	uxth	r3, r3
 80024bc:	f7ff f9a6 	bl	800180c <HAL_DMA_Start_IT>
 80024c0:	b158      	cbz	r0, 80024da <HAL_SPI_Transmit_DMA+0x8e>
 80024c2:	6d63      	ldr	r3, [r4, #84]	; 0x54
 80024c4:	f043 0310 	orr.w	r3, r3, #16
 80024c8:	6563      	str	r3, [r4, #84]	; 0x54
 80024ca:	2301      	movs	r3, #1
 80024cc:	f884 3051 	strb.w	r3, [r4, #81]	; 0x51
 80024d0:	2300      	movs	r3, #0
 80024d2:	f884 3050 	strb.w	r3, [r4, #80]	; 0x50
 80024d6:	4628      	mov	r0, r5
 80024d8:	bd38      	pop	{r3, r4, r5, pc}
 80024da:	6823      	ldr	r3, [r4, #0]
 80024dc:	681a      	ldr	r2, [r3, #0]
 80024de:	0652      	lsls	r2, r2, #25
 80024e0:	bf5e      	ittt	pl
 80024e2:	681a      	ldrpl	r2, [r3, #0]
 80024e4:	f042 0240 	orrpl.w	r2, r2, #64	; 0x40
 80024e8:	601a      	strpl	r2, [r3, #0]
 80024ea:	685a      	ldr	r2, [r3, #4]
 80024ec:	f042 0220 	orr.w	r2, r2, #32
 80024f0:	605a      	str	r2, [r3, #4]
 80024f2:	685a      	ldr	r2, [r3, #4]
 80024f4:	f042 0202 	orr.w	r2, r2, #2
 80024f8:	605a      	str	r2, [r3, #4]
 80024fa:	2500      	movs	r5, #0
 80024fc:	e7e8      	b.n	80024d0 <HAL_SPI_Transmit_DMA+0x84>
 80024fe:	2502      	movs	r5, #2
 8002500:	e7e6      	b.n	80024d0 <HAL_SPI_Transmit_DMA+0x84>
 8002502:	2502      	movs	r5, #2
 8002504:	e7e7      	b.n	80024d6 <HAL_SPI_Transmit_DMA+0x8a>
 8002506:	bf00      	nop
 8002508:	08002519 	.word	0x08002519
 800250c:	08002547 	.word	0x08002547
 8002510:	08002525 	.word	0x08002525

08002514 <HAL_SPI_TxCpltCallback>:
 8002514:	4770      	bx	lr

08002516 <HAL_SPI_TxHalfCpltCallback>:
 8002516:	4770      	bx	lr

08002518 <SPI_DMAHalfTransmitCplt>:
 8002518:	b508      	push	{r3, lr}
 800251a:	6b80      	ldr	r0, [r0, #56]	; 0x38
 800251c:	f7ff fffb 	bl	8002516 <HAL_SPI_TxHalfCpltCallback>
 8002520:	bd08      	pop	{r3, pc}

08002522 <HAL_SPI_ErrorCallback>:
 8002522:	4770      	bx	lr

08002524 <SPI_DMAError>:
 8002524:	6b80      	ldr	r0, [r0, #56]	; 0x38
 8002526:	6802      	ldr	r2, [r0, #0]
 8002528:	b508      	push	{r3, lr}
 800252a:	6853      	ldr	r3, [r2, #4]
 800252c:	f023 0303 	bic.w	r3, r3, #3
 8002530:	6053      	str	r3, [r2, #4]
 8002532:	6d43      	ldr	r3, [r0, #84]	; 0x54
 8002534:	f043 0310 	orr.w	r3, r3, #16
 8002538:	6543      	str	r3, [r0, #84]	; 0x54
 800253a:	2301      	movs	r3, #1
 800253c:	f880 3051 	strb.w	r3, [r0, #81]	; 0x51
 8002540:	f7ff ffef 	bl	8002522 <HAL_SPI_ErrorCallback>
 8002544:	bd08      	pop	{r3, pc}

08002546 <SPI_DMATransmitCplt>:
 8002546:	b537      	push	{r0, r1, r2, r4, r5, lr}
 8002548:	4605      	mov	r5, r0
 800254a:	6b84      	ldr	r4, [r0, #56]	; 0x38
 800254c:	f7fe ffca 	bl	80014e4 <HAL_GetTick>
 8002550:	682b      	ldr	r3, [r5, #0]
 8002552:	681b      	ldr	r3, [r3, #0]
 8002554:	05db      	lsls	r3, r3, #23
 8002556:	4602      	mov	r2, r0
 8002558:	d426      	bmi.n	80025a8 <SPI_DMATransmitCplt+0x62>
 800255a:	6823      	ldr	r3, [r4, #0]
 800255c:	6859      	ldr	r1, [r3, #4]
 800255e:	f021 0120 	bic.w	r1, r1, #32
 8002562:	6059      	str	r1, [r3, #4]
 8002564:	6859      	ldr	r1, [r3, #4]
 8002566:	f021 0102 	bic.w	r1, r1, #2
 800256a:	6059      	str	r1, [r3, #4]
 800256c:	4620      	mov	r0, r4
 800256e:	2164      	movs	r1, #100	; 0x64
 8002570:	f7ff fe36 	bl	80021e0 <SPI_EndRxTxTransaction>
 8002574:	b118      	cbz	r0, 800257e <SPI_DMATransmitCplt+0x38>
 8002576:	6d63      	ldr	r3, [r4, #84]	; 0x54
 8002578:	f043 0320 	orr.w	r3, r3, #32
 800257c:	6563      	str	r3, [r4, #84]	; 0x54
 800257e:	68a3      	ldr	r3, [r4, #8]
 8002580:	b933      	cbnz	r3, 8002590 <SPI_DMATransmitCplt+0x4a>
 8002582:	9301      	str	r3, [sp, #4]
 8002584:	6823      	ldr	r3, [r4, #0]
 8002586:	68da      	ldr	r2, [r3, #12]
 8002588:	9201      	str	r2, [sp, #4]
 800258a:	689b      	ldr	r3, [r3, #8]
 800258c:	9301      	str	r3, [sp, #4]
 800258e:	9b01      	ldr	r3, [sp, #4]
 8002590:	2300      	movs	r3, #0
 8002592:	86e3      	strh	r3, [r4, #54]	; 0x36
 8002594:	2301      	movs	r3, #1
 8002596:	f884 3051 	strb.w	r3, [r4, #81]	; 0x51
 800259a:	6d63      	ldr	r3, [r4, #84]	; 0x54
 800259c:	b123      	cbz	r3, 80025a8 <SPI_DMATransmitCplt+0x62>
 800259e:	4620      	mov	r0, r4
 80025a0:	f7ff ffbf 	bl	8002522 <HAL_SPI_ErrorCallback>
 80025a4:	b003      	add	sp, #12
 80025a6:	bd30      	pop	{r4, r5, pc}
 80025a8:	4620      	mov	r0, r4
 80025aa:	f7ff ffb3 	bl	8002514 <HAL_SPI_TxCpltCallback>
 80025ae:	e7f9      	b.n	80025a4 <SPI_DMATransmitCplt+0x5e>

080025b0 <HAL_SPI_IRQHandler>:
 80025b0:	b5f0      	push	{r4, r5, r6, r7, lr}
 80025b2:	6803      	ldr	r3, [r0, #0]
 80025b4:	685d      	ldr	r5, [r3, #4]
 80025b6:	689a      	ldr	r2, [r3, #8]
 80025b8:	0656      	lsls	r6, r2, #25
 80025ba:	b085      	sub	sp, #20
 80025bc:	4604      	mov	r4, r0
 80025be:	ea4f 1192 	mov.w	r1, r2, lsr #6
 80025c2:	f3c2 1780 	ubfx	r7, r2, #6, #1
 80025c6:	d408      	bmi.n	80025da <HAL_SPI_IRQHandler+0x2a>
 80025c8:	07d6      	lsls	r6, r2, #31
 80025ca:	d506      	bpl.n	80025da <HAL_SPI_IRQHandler+0x2a>
 80025cc:	066e      	lsls	r6, r5, #25
 80025ce:	d504      	bpl.n	80025da <HAL_SPI_IRQHandler+0x2a>
 80025d0:	6c03      	ldr	r3, [r0, #64]	; 0x40
 80025d2:	b005      	add	sp, #20
 80025d4:	e8bd 40f0 	ldmia.w	sp!, {r4, r5, r6, r7, lr}
 80025d8:	4718      	bx	r3
 80025da:	0796      	lsls	r6, r2, #30
 80025dc:	d504      	bpl.n	80025e8 <HAL_SPI_IRQHandler+0x38>
 80025de:	0628      	lsls	r0, r5, #24
 80025e0:	d502      	bpl.n	80025e8 <HAL_SPI_IRQHandler+0x38>
 80025e2:	6c63      	ldr	r3, [r4, #68]	; 0x44
 80025e4:	4620      	mov	r0, r4
 80025e6:	e7f4      	b.n	80025d2 <HAL_SPI_IRQHandler+0x22>
 80025e8:	f3c2 2000 	ubfx	r0, r2, #8, #1
 80025ec:	0956      	lsrs	r6, r2, #5
 80025ee:	ea41 1252 	orr.w	r2, r1, r2, lsr #5
 80025f2:	f002 0201 	and.w	r2, r2, #1
 80025f6:	4302      	orrs	r2, r0
 80025f8:	d057      	beq.n	80026aa <HAL_SPI_IRQHandler+0xfa>
 80025fa:	06aa      	lsls	r2, r5, #26
 80025fc:	d555      	bpl.n	80026aa <HAL_SPI_IRQHandler+0xfa>
 80025fe:	b17f      	cbz	r7, 8002620 <HAL_SPI_IRQHandler+0x70>
 8002600:	f894 2051 	ldrb.w	r2, [r4, #81]	; 0x51
 8002604:	2a03      	cmp	r2, #3
 8002606:	f04f 0100 	mov.w	r1, #0
 800260a:	d048      	beq.n	800269e <HAL_SPI_IRQHandler+0xee>
 800260c:	6d62      	ldr	r2, [r4, #84]	; 0x54
 800260e:	f042 0204 	orr.w	r2, r2, #4
 8002612:	6562      	str	r2, [r4, #84]	; 0x54
 8002614:	9100      	str	r1, [sp, #0]
 8002616:	68da      	ldr	r2, [r3, #12]
 8002618:	9200      	str	r2, [sp, #0]
 800261a:	689a      	ldr	r2, [r3, #8]
 800261c:	9200      	str	r2, [sp, #0]
 800261e:	9a00      	ldr	r2, [sp, #0]
 8002620:	07f1      	lsls	r1, r6, #31
 8002622:	d50c      	bpl.n	800263e <HAL_SPI_IRQHandler+0x8e>
 8002624:	6d62      	ldr	r2, [r4, #84]	; 0x54
 8002626:	f042 0201 	orr.w	r2, r2, #1
 800262a:	6562      	str	r2, [r4, #84]	; 0x54
 800262c:	2200      	movs	r2, #0
 800262e:	9202      	str	r2, [sp, #8]
 8002630:	689a      	ldr	r2, [r3, #8]
 8002632:	9202      	str	r2, [sp, #8]
 8002634:	681a      	ldr	r2, [r3, #0]
 8002636:	f022 0240 	bic.w	r2, r2, #64	; 0x40
 800263a:	601a      	str	r2, [r3, #0]
 800263c:	9a02      	ldr	r2, [sp, #8]
 800263e:	b140      	cbz	r0, 8002652 <HAL_SPI_IRQHandler+0xa2>
 8002640:	6d62      	ldr	r2, [r4, #84]	; 0x54
 8002642:	f042 0208 	orr.w	r2, r2, #8
 8002646:	6562      	str	r2, [r4, #84]	; 0x54
 8002648:	2200      	movs	r2, #0
 800264a:	9203      	str	r2, [sp, #12]
 800264c:	689a      	ldr	r2, [r3, #8]
 800264e:	9203      	str	r2, [sp, #12]
 8002650:	9a03      	ldr	r2, [sp, #12]
 8002652:	6d62      	ldr	r2, [r4, #84]	; 0x54
 8002654:	b34a      	cbz	r2, 80026aa <HAL_SPI_IRQHandler+0xfa>
 8002656:	685a      	ldr	r2, [r3, #4]
 8002658:	f022 02e0 	bic.w	r2, r2, #224	; 0xe0
 800265c:	605a      	str	r2, [r3, #4]
 800265e:	2201      	movs	r2, #1
 8002660:	f884 2051 	strb.w	r2, [r4, #81]	; 0x51
 8002664:	07aa      	lsls	r2, r5, #30
 8002666:	d022      	beq.n	80026ae <HAL_SPI_IRQHandler+0xfe>
 8002668:	685a      	ldr	r2, [r3, #4]
 800266a:	6ce0      	ldr	r0, [r4, #76]	; 0x4c
 800266c:	f022 0203 	bic.w	r2, r2, #3
 8002670:	605a      	str	r2, [r3, #4]
 8002672:	b140      	cbz	r0, 8002686 <HAL_SPI_IRQHandler+0xd6>
 8002674:	4b10      	ldr	r3, [pc, #64]	; (80026b8 <HAL_SPI_IRQHandler+0x108>)
 8002676:	6503      	str	r3, [r0, #80]	; 0x50
 8002678:	f7ff f902 	bl	8001880 <HAL_DMA_Abort_IT>
 800267c:	b118      	cbz	r0, 8002686 <HAL_SPI_IRQHandler+0xd6>
 800267e:	6d63      	ldr	r3, [r4, #84]	; 0x54
 8002680:	f043 0340 	orr.w	r3, r3, #64	; 0x40
 8002684:	6563      	str	r3, [r4, #84]	; 0x54
 8002686:	6ca0      	ldr	r0, [r4, #72]	; 0x48
 8002688:	b178      	cbz	r0, 80026aa <HAL_SPI_IRQHandler+0xfa>
 800268a:	4b0b      	ldr	r3, [pc, #44]	; (80026b8 <HAL_SPI_IRQHandler+0x108>)
 800268c:	6503      	str	r3, [r0, #80]	; 0x50
 800268e:	f7ff f8f7 	bl	8001880 <HAL_DMA_Abort_IT>
 8002692:	b150      	cbz	r0, 80026aa <HAL_SPI_IRQHandler+0xfa>
 8002694:	6d63      	ldr	r3, [r4, #84]	; 0x54
 8002696:	f043 0340 	orr.w	r3, r3, #64	; 0x40
 800269a:	6563      	str	r3, [r4, #84]	; 0x54
 800269c:	e005      	b.n	80026aa <HAL_SPI_IRQHandler+0xfa>
 800269e:	9101      	str	r1, [sp, #4]
 80026a0:	68da      	ldr	r2, [r3, #12]
 80026a2:	9201      	str	r2, [sp, #4]
 80026a4:	689b      	ldr	r3, [r3, #8]
 80026a6:	9301      	str	r3, [sp, #4]
 80026a8:	9b01      	ldr	r3, [sp, #4]
 80026aa:	b005      	add	sp, #20
 80026ac:	bdf0      	pop	{r4, r5, r6, r7, pc}
 80026ae:	4620      	mov	r0, r4
 80026b0:	f7ff ff37 	bl	8002522 <HAL_SPI_ErrorCallback>
 80026b4:	e7f9      	b.n	80026aa <HAL_SPI_IRQHandler+0xfa>
 80026b6:	bf00      	nop
 80026b8:	080026bd 	.word	0x080026bd

080026bc <SPI_DMAAbortOnError>:
 80026bc:	b508      	push	{r3, lr}
 80026be:	6b80      	ldr	r0, [r0, #56]	; 0x38
 80026c0:	2300      	movs	r3, #0
 80026c2:	87c3      	strh	r3, [r0, #62]	; 0x3e
 80026c4:	86c3      	strh	r3, [r0, #54]	; 0x36
 80026c6:	f7ff ff2c 	bl	8002522 <HAL_SPI_ErrorCallback>
 80026ca:	bd08      	pop	{r3, pc}

080026cc <HAL_SPI_GetState>:
 80026cc:	f890 0051 	ldrb.w	r0, [r0, #81]	; 0x51
 80026d0:	4770      	bx	lr
	...

080026d4 <TIM_OC1_SetConfig>:
 80026d4:	6a03      	ldr	r3, [r0, #32]
 80026d6:	f023 0301 	bic.w	r3, r3, #1
 80026da:	6203      	str	r3, [r0, #32]
 80026dc:	6a03      	ldr	r3, [r0, #32]
 80026de:	b570      	push	{r4, r5, r6, lr}
 80026e0:	6844      	ldr	r4, [r0, #4]
 80026e2:	6982      	ldr	r2, [r0, #24]
 80026e4:	680d      	ldr	r5, [r1, #0]
 80026e6:	f022 0273 	bic.w	r2, r2, #115	; 0x73
 80026ea:	432a      	orrs	r2, r5
 80026ec:	688d      	ldr	r5, [r1, #8]
 80026ee:	f023 0302 	bic.w	r3, r3, #2
 80026f2:	432b      	orrs	r3, r5
 80026f4:	4d0e      	ldr	r5, [pc, #56]	; (8002730 <TIM_OC1_SetConfig+0x5c>)
 80026f6:	42a8      	cmp	r0, r5
 80026f8:	d002      	beq.n	8002700 <TIM_OC1_SetConfig+0x2c>
 80026fa:	4e0e      	ldr	r6, [pc, #56]	; (8002734 <TIM_OC1_SetConfig+0x60>)
 80026fc:	42b0      	cmp	r0, r6
 80026fe:	d110      	bne.n	8002722 <TIM_OC1_SetConfig+0x4e>
 8002700:	68ce      	ldr	r6, [r1, #12]
 8002702:	f023 0308 	bic.w	r3, r3, #8
 8002706:	4333      	orrs	r3, r6
 8002708:	42a8      	cmp	r0, r5
 800270a:	f023 0304 	bic.w	r3, r3, #4
 800270e:	d002      	beq.n	8002716 <TIM_OC1_SetConfig+0x42>
 8002710:	4d08      	ldr	r5, [pc, #32]	; (8002734 <TIM_OC1_SetConfig+0x60>)
 8002712:	42a8      	cmp	r0, r5
 8002714:	d105      	bne.n	8002722 <TIM_OC1_SetConfig+0x4e>
 8002716:	e9d1 5605 	ldrd	r5, r6, [r1, #20]
 800271a:	f424 7440 	bic.w	r4, r4, #768	; 0x300
 800271e:	4335      	orrs	r5, r6
 8002720:	432c      	orrs	r4, r5
 8002722:	6044      	str	r4, [r0, #4]
 8002724:	6182      	str	r2, [r0, #24]
 8002726:	684a      	ldr	r2, [r1, #4]
 8002728:	6342      	str	r2, [r0, #52]	; 0x34
 800272a:	6203      	str	r3, [r0, #32]
 800272c:	bd70      	pop	{r4, r5, r6, pc}
 800272e:	bf00      	nop
 8002730:	40010000 	.word	0x40010000
 8002734:	40010400 	.word	0x40010400

08002738 <TIM_OC3_SetConfig>:
 8002738:	6a03      	ldr	r3, [r0, #32]
 800273a:	f423 7380 	bic.w	r3, r3, #256	; 0x100
 800273e:	6203      	str	r3, [r0, #32]
 8002740:	6a03      	ldr	r3, [r0, #32]
 8002742:	b570      	push	{r4, r5, r6, lr}
 8002744:	6844      	ldr	r4, [r0, #4]
 8002746:	69c2      	ldr	r2, [r0, #28]
 8002748:	680d      	ldr	r5, [r1, #0]
 800274a:	f022 0273 	bic.w	r2, r2, #115	; 0x73
 800274e:	432a      	orrs	r2, r5
 8002750:	688d      	ldr	r5, [r1, #8]
 8002752:	f423 7300 	bic.w	r3, r3, #512	; 0x200
 8002756:	ea43 2305 	orr.w	r3, r3, r5, lsl #8
 800275a:	4d11      	ldr	r5, [pc, #68]	; (80027a0 <TIM_OC3_SetConfig+0x68>)
 800275c:	42a8      	cmp	r0, r5
 800275e:	d003      	beq.n	8002768 <TIM_OC3_SetConfig+0x30>
 8002760:	f505 6580 	add.w	r5, r5, #1024	; 0x400
 8002764:	42a8      	cmp	r0, r5
 8002766:	d114      	bne.n	8002792 <TIM_OC3_SetConfig+0x5a>
 8002768:	68cd      	ldr	r5, [r1, #12]
 800276a:	f423 6300 	bic.w	r3, r3, #2048	; 0x800
 800276e:	ea43 2305 	orr.w	r3, r3, r5, lsl #8
 8002772:	4d0b      	ldr	r5, [pc, #44]	; (80027a0 <TIM_OC3_SetConfig+0x68>)
 8002774:	42a8      	cmp	r0, r5
 8002776:	f423 6380 	bic.w	r3, r3, #1024	; 0x400
 800277a:	d003      	beq.n	8002784 <TIM_OC3_SetConfig+0x4c>
 800277c:	f505 6580 	add.w	r5, r5, #1024	; 0x400
 8002780:	42a8      	cmp	r0, r5
 8002782:	d106      	bne.n	8002792 <TIM_OC3_SetConfig+0x5a>
 8002784:	e9d1 5605 	ldrd	r5, r6, [r1, #20]
 8002788:	f424 5440 	bic.w	r4, r4, #12288	; 0x3000
 800278c:	4335      	orrs	r5, r6
 800278e:	ea44 1405 	orr.w	r4, r4, r5, lsl #4
 8002792:	6044      	str	r4, [r0, #4]
 8002794:	61c2      	str	r2, [r0, #28]
 8002796:	684a      	ldr	r2, [r1, #4]
 8002798:	63c2      	str	r2, [r0, #60]	; 0x3c
 800279a:	6203      	str	r3, [r0, #32]
 800279c:	bd70      	pop	{r4, r5, r6, pc}
 800279e:	bf00      	nop
 80027a0:	40010000 	.word	0x40010000

080027a4 <TIM_OC4_SetConfig>:
 80027a4:	6a03      	ldr	r3, [r0, #32]
 80027a6:	f423 5380 	bic.w	r3, r3, #4096	; 0x1000
 80027aa:	6203      	str	r3, [r0, #32]
 80027ac:	6a03      	ldr	r3, [r0, #32]
 80027ae:	b530      	push	{r4, r5, lr}
 80027b0:	6844      	ldr	r4, [r0, #4]
 80027b2:	69c2      	ldr	r2, [r0, #28]
 80027b4:	680d      	ldr	r5, [r1, #0]
 80027b6:	f422 42e6 	bic.w	r2, r2, #29440	; 0x7300
 80027ba:	ea42 2205 	orr.w	r2, r2, r5, lsl #8
 80027be:	688d      	ldr	r5, [r1, #8]
 80027c0:	f423 5300 	bic.w	r3, r3, #8192	; 0x2000
 80027c4:	ea43 3305 	orr.w	r3, r3, r5, lsl #12
 80027c8:	4d08      	ldr	r5, [pc, #32]	; (80027ec <TIM_OC4_SetConfig+0x48>)
 80027ca:	42a8      	cmp	r0, r5
 80027cc:	d003      	beq.n	80027d6 <TIM_OC4_SetConfig+0x32>
 80027ce:	f505 6580 	add.w	r5, r5, #1024	; 0x400
 80027d2:	42a8      	cmp	r0, r5
 80027d4:	d104      	bne.n	80027e0 <TIM_OC4_SetConfig+0x3c>
 80027d6:	694d      	ldr	r5, [r1, #20]
 80027d8:	f424 4480 	bic.w	r4, r4, #16384	; 0x4000
 80027dc:	ea44 1485 	orr.w	r4, r4, r5, lsl #6
 80027e0:	6044      	str	r4, [r0, #4]
 80027e2:	61c2      	str	r2, [r0, #28]
 80027e4:	684a      	ldr	r2, [r1, #4]
 80027e6:	6402      	str	r2, [r0, #64]	; 0x40
 80027e8:	6203      	str	r3, [r0, #32]
 80027ea:	bd30      	pop	{r4, r5, pc}
 80027ec:	40010000 	.word	0x40010000

080027f0 <HAL_TIM_PWM_MspInit>:
 80027f0:	4770      	bx	lr

080027f2 <HAL_TIM_PeriodElapsedCallback>:
 80027f2:	4770      	bx	lr

080027f4 <HAL_TIM_OC_DelayElapsedCallback>:
 80027f4:	4770      	bx	lr

080027f6 <HAL_TIM_IC_CaptureCallback>:
 80027f6:	4770      	bx	lr

080027f8 <HAL_TIM_PWM_PulseFinishedCallback>:
 80027f8:	4770      	bx	lr

080027fa <HAL_TIM_TriggerCallback>:
 80027fa:	4770      	bx	lr

080027fc <HAL_TIM_IRQHandler>:
 80027fc:	6803      	ldr	r3, [r0, #0]
 80027fe:	691a      	ldr	r2, [r3, #16]
 8002800:	0791      	lsls	r1, r2, #30
 8002802:	b510      	push	{r4, lr}
 8002804:	4604      	mov	r4, r0
 8002806:	d50e      	bpl.n	8002826 <HAL_TIM_IRQHandler+0x2a>
 8002808:	68da      	ldr	r2, [r3, #12]
 800280a:	0792      	lsls	r2, r2, #30
 800280c:	d50b      	bpl.n	8002826 <HAL_TIM_IRQHandler+0x2a>
 800280e:	f06f 0202 	mvn.w	r2, #2
 8002812:	611a      	str	r2, [r3, #16]
 8002814:	2201      	movs	r2, #1
 8002816:	7702      	strb	r2, [r0, #28]
 8002818:	699b      	ldr	r3, [r3, #24]
 800281a:	079b      	lsls	r3, r3, #30
 800281c:	d077      	beq.n	800290e <HAL_TIM_IRQHandler+0x112>
 800281e:	f7ff ffea 	bl	80027f6 <HAL_TIM_IC_CaptureCallback>
 8002822:	2300      	movs	r3, #0
 8002824:	7723      	strb	r3, [r4, #28]
 8002826:	6823      	ldr	r3, [r4, #0]
 8002828:	691a      	ldr	r2, [r3, #16]
 800282a:	0750      	lsls	r0, r2, #29
 800282c:	d510      	bpl.n	8002850 <HAL_TIM_IRQHandler+0x54>
 800282e:	68da      	ldr	r2, [r3, #12]
 8002830:	0751      	lsls	r1, r2, #29
 8002832:	d50d      	bpl.n	8002850 <HAL_TIM_IRQHandler+0x54>
 8002834:	f06f 0204 	mvn.w	r2, #4
 8002838:	611a      	str	r2, [r3, #16]
 800283a:	2202      	movs	r2, #2
 800283c:	7722      	strb	r2, [r4, #28]
 800283e:	699b      	ldr	r3, [r3, #24]
 8002840:	f413 7f40 	tst.w	r3, #768	; 0x300
 8002844:	4620      	mov	r0, r4
 8002846:	d068      	beq.n	800291a <HAL_TIM_IRQHandler+0x11e>
 8002848:	f7ff ffd5 	bl	80027f6 <HAL_TIM_IC_CaptureCallback>
 800284c:	2300      	movs	r3, #0
 800284e:	7723      	strb	r3, [r4, #28]
 8002850:	6823      	ldr	r3, [r4, #0]
 8002852:	691a      	ldr	r2, [r3, #16]
 8002854:	0712      	lsls	r2, r2, #28
 8002856:	d50f      	bpl.n	8002878 <HAL_TIM_IRQHandler+0x7c>
 8002858:	68da      	ldr	r2, [r3, #12]
 800285a:	0710      	lsls	r0, r2, #28
 800285c:	d50c      	bpl.n	8002878 <HAL_TIM_IRQHandler+0x7c>
 800285e:	f06f 0208 	mvn.w	r2, #8
 8002862:	611a      	str	r2, [r3, #16]
 8002864:	2204      	movs	r2, #4
 8002866:	7722      	strb	r2, [r4, #28]
 8002868:	69db      	ldr	r3, [r3, #28]
 800286a:	0799      	lsls	r1, r3, #30
 800286c:	4620      	mov	r0, r4
 800286e:	d05a      	beq.n	8002926 <HAL_TIM_IRQHandler+0x12a>
 8002870:	f7ff ffc1 	bl	80027f6 <HAL_TIM_IC_CaptureCallback>
 8002874:	2300      	movs	r3, #0
 8002876:	7723      	strb	r3, [r4, #28]
 8002878:	6823      	ldr	r3, [r4, #0]
 800287a:	691a      	ldr	r2, [r3, #16]
 800287c:	06d2      	lsls	r2, r2, #27
 800287e:	d510      	bpl.n	80028a2 <HAL_TIM_IRQHandler+0xa6>
 8002880:	68da      	ldr	r2, [r3, #12]
 8002882:	06d0      	lsls	r0, r2, #27
 8002884:	d50d      	bpl.n	80028a2 <HAL_TIM_IRQHandler+0xa6>
 8002886:	f06f 0210 	mvn.w	r2, #16
 800288a:	611a      	str	r2, [r3, #16]
 800288c:	2208      	movs	r2, #8
 800288e:	7722      	strb	r2, [r4, #28]
 8002890:	69db      	ldr	r3, [r3, #28]
 8002892:	f413 7f40 	tst.w	r3, #768	; 0x300
 8002896:	4620      	mov	r0, r4
 8002898:	d04b      	beq.n	8002932 <HAL_TIM_IRQHandler+0x136>
 800289a:	f7ff ffac 	bl	80027f6 <HAL_TIM_IC_CaptureCallback>
 800289e:	2300      	movs	r3, #0
 80028a0:	7723      	strb	r3, [r4, #28]
 80028a2:	6823      	ldr	r3, [r4, #0]
 80028a4:	691a      	ldr	r2, [r3, #16]
 80028a6:	07d1      	lsls	r1, r2, #31
 80028a8:	d508      	bpl.n	80028bc <HAL_TIM_IRQHandler+0xc0>
 80028aa:	68da      	ldr	r2, [r3, #12]
 80028ac:	07d2      	lsls	r2, r2, #31
 80028ae:	d505      	bpl.n	80028bc <HAL_TIM_IRQHandler+0xc0>
 80028b0:	f06f 0201 	mvn.w	r2, #1
 80028b4:	611a      	str	r2, [r3, #16]
 80028b6:	4620      	mov	r0, r4
 80028b8:	f7ff ff9b 	bl	80027f2 <HAL_TIM_PeriodElapsedCallback>
 80028bc:	6823      	ldr	r3, [r4, #0]
 80028be:	691a      	ldr	r2, [r3, #16]
 80028c0:	0610      	lsls	r0, r2, #24
 80028c2:	d508      	bpl.n	80028d6 <HAL_TIM_IRQHandler+0xda>
 80028c4:	68da      	ldr	r2, [r3, #12]
 80028c6:	0611      	lsls	r1, r2, #24
 80028c8:	d505      	bpl.n	80028d6 <HAL_TIM_IRQHandler+0xda>
 80028ca:	f06f 0280 	mvn.w	r2, #128	; 0x80
 80028ce:	611a      	str	r2, [r3, #16]
 80028d0:	4620      	mov	r0, r4
 80028d2:	f000 fa6c 	bl	8002dae <HAL_TIMEx_BreakCallback>
 80028d6:	6823      	ldr	r3, [r4, #0]
 80028d8:	691a      	ldr	r2, [r3, #16]
 80028da:	0652      	lsls	r2, r2, #25
 80028dc:	d508      	bpl.n	80028f0 <HAL_TIM_IRQHandler+0xf4>
 80028de:	68da      	ldr	r2, [r3, #12]
 80028e0:	0650      	lsls	r0, r2, #25
 80028e2:	d505      	bpl.n	80028f0 <HAL_TIM_IRQHandler+0xf4>
 80028e4:	f06f 0240 	mvn.w	r2, #64	; 0x40
 80028e8:	611a      	str	r2, [r3, #16]
 80028ea:	4620      	mov	r0, r4
 80028ec:	f7ff ff85 	bl	80027fa <HAL_TIM_TriggerCallback>
 80028f0:	6823      	ldr	r3, [r4, #0]
 80028f2:	691a      	ldr	r2, [r3, #16]
 80028f4:	0691      	lsls	r1, r2, #26
 80028f6:	d522      	bpl.n	800293e <HAL_TIM_IRQHandler+0x142>
 80028f8:	68da      	ldr	r2, [r3, #12]
 80028fa:	0692      	lsls	r2, r2, #26
 80028fc:	d51f      	bpl.n	800293e <HAL_TIM_IRQHandler+0x142>
 80028fe:	f06f 0220 	mvn.w	r2, #32
 8002902:	4620      	mov	r0, r4
 8002904:	611a      	str	r2, [r3, #16]
 8002906:	e8bd 4010 	ldmia.w	sp!, {r4, lr}
 800290a:	f000 ba4f 	b.w	8002dac <HAL_TIMEx_CommutCallback>
 800290e:	f7ff ff71 	bl	80027f4 <HAL_TIM_OC_DelayElapsedCallback>
 8002912:	4620      	mov	r0, r4
 8002914:	f7ff ff70 	bl	80027f8 <HAL_TIM_PWM_PulseFinishedCallback>
 8002918:	e783      	b.n	8002822 <HAL_TIM_IRQHandler+0x26>
 800291a:	f7ff ff6b 	bl	80027f4 <HAL_TIM_OC_DelayElapsedCallback>
 800291e:	4620      	mov	r0, r4
 8002920:	f7ff ff6a 	bl	80027f8 <HAL_TIM_PWM_PulseFinishedCallback>
 8002924:	e792      	b.n	800284c <HAL_TIM_IRQHandler+0x50>
 8002926:	f7ff ff65 	bl	80027f4 <HAL_TIM_OC_DelayElapsedCallback>
 800292a:	4620      	mov	r0, r4
 800292c:	f7ff ff64 	bl	80027f8 <HAL_TIM_PWM_PulseFinishedCallback>
 8002930:	e7a0      	b.n	8002874 <HAL_TIM_IRQHandler+0x78>
 8002932:	f7ff ff5f 	bl	80027f4 <HAL_TIM_OC_DelayElapsedCallback>
 8002936:	4620      	mov	r0, r4
 8002938:	f7ff ff5e 	bl	80027f8 <HAL_TIM_PWM_PulseFinishedCallback>
 800293c:	e7af      	b.n	800289e <HAL_TIM_IRQHandler+0xa2>
 800293e:	bd10      	pop	{r4, pc}

08002940 <TIM_Base_SetConfig>:
 8002940:	4a30      	ldr	r2, [pc, #192]	; (8002a04 <TIM_Base_SetConfig+0xc4>)
 8002942:	6803      	ldr	r3, [r0, #0]
 8002944:	4290      	cmp	r0, r2
 8002946:	d012      	beq.n	800296e <TIM_Base_SetConfig+0x2e>
 8002948:	f1b0 4f80 	cmp.w	r0, #1073741824	; 0x40000000
 800294c:	d00f      	beq.n	800296e <TIM_Base_SetConfig+0x2e>
 800294e:	f5a2 427c 	sub.w	r2, r2, #64512	; 0xfc00
 8002952:	4290      	cmp	r0, r2
 8002954:	d00b      	beq.n	800296e <TIM_Base_SetConfig+0x2e>
 8002956:	f502 6280 	add.w	r2, r2, #1024	; 0x400
 800295a:	4290      	cmp	r0, r2
 800295c:	d007      	beq.n	800296e <TIM_Base_SetConfig+0x2e>
 800295e:	f502 6280 	add.w	r2, r2, #1024	; 0x400
 8002962:	4290      	cmp	r0, r2
 8002964:	d003      	beq.n	800296e <TIM_Base_SetConfig+0x2e>
 8002966:	f502 4278 	add.w	r2, r2, #63488	; 0xf800
 800296a:	4290      	cmp	r0, r2
 800296c:	d119      	bne.n	80029a2 <TIM_Base_SetConfig+0x62>
 800296e:	684a      	ldr	r2, [r1, #4]
 8002970:	f023 0370 	bic.w	r3, r3, #112	; 0x70
 8002974:	4313      	orrs	r3, r2
 8002976:	4a23      	ldr	r2, [pc, #140]	; (8002a04 <TIM_Base_SetConfig+0xc4>)
 8002978:	4290      	cmp	r0, r2
 800297a:	d029      	beq.n	80029d0 <TIM_Base_SetConfig+0x90>
 800297c:	f1b0 4f80 	cmp.w	r0, #1073741824	; 0x40000000
 8002980:	d026      	beq.n	80029d0 <TIM_Base_SetConfig+0x90>
 8002982:	f5a2 427c 	sub.w	r2, r2, #64512	; 0xfc00
 8002986:	4290      	cmp	r0, r2
 8002988:	d022      	beq.n	80029d0 <TIM_Base_SetConfig+0x90>
 800298a:	f502 6280 	add.w	r2, r2, #1024	; 0x400
 800298e:	4290      	cmp	r0, r2
 8002990:	d01e      	beq.n	80029d0 <TIM_Base_SetConfig+0x90>
 8002992:	f502 6280 	add.w	r2, r2, #1024	; 0x400
 8002996:	4290      	cmp	r0, r2
 8002998:	d01a      	beq.n	80029d0 <TIM_Base_SetConfig+0x90>
 800299a:	f502 4278 	add.w	r2, r2, #63488	; 0xf800
 800299e:	4290      	cmp	r0, r2
 80029a0:	d016      	beq.n	80029d0 <TIM_Base_SetConfig+0x90>
 80029a2:	4a19      	ldr	r2, [pc, #100]	; (8002a08 <TIM_Base_SetConfig+0xc8>)
 80029a4:	4290      	cmp	r0, r2
 80029a6:	d013      	beq.n	80029d0 <TIM_Base_SetConfig+0x90>
 80029a8:	f502 6280 	add.w	r2, r2, #1024	; 0x400
 80029ac:	4290      	cmp	r0, r2
 80029ae:	d00f      	beq.n	80029d0 <TIM_Base_SetConfig+0x90>
 80029b0:	f502 6280 	add.w	r2, r2, #1024	; 0x400
 80029b4:	4290      	cmp	r0, r2
 80029b6:	d00b      	beq.n	80029d0 <TIM_Base_SetConfig+0x90>
 80029b8:	f5a2 3298 	sub.w	r2, r2, #77824	; 0x13000
 80029bc:	4290      	cmp	r0, r2
 80029be:	d007      	beq.n	80029d0 <TIM_Base_SetConfig+0x90>
 80029c0:	f502 6280 	add.w	r2, r2, #1024	; 0x400
 80029c4:	4290      	cmp	r0, r2
 80029c6:	d003      	beq.n	80029d0 <TIM_Base_SetConfig+0x90>
 80029c8:	f502 6280 	add.w	r2, r2, #1024	; 0x400
 80029cc:	4290      	cmp	r0, r2
 80029ce:	d103      	bne.n	80029d8 <TIM_Base_SetConfig+0x98>
 80029d0:	68ca      	ldr	r2, [r1, #12]
 80029d2:	f423 7340 	bic.w	r3, r3, #768	; 0x300
 80029d6:	4313      	orrs	r3, r2
 80029d8:	694a      	ldr	r2, [r1, #20]
 80029da:	f023 0380 	bic.w	r3, r3, #128	; 0x80
 80029de:	4313      	orrs	r3, r2
 80029e0:	6003      	str	r3, [r0, #0]
 80029e2:	688b      	ldr	r3, [r1, #8]
 80029e4:	62c3      	str	r3, [r0, #44]	; 0x2c
 80029e6:	680b      	ldr	r3, [r1, #0]
 80029e8:	6283      	str	r3, [r0, #40]	; 0x28
 80029ea:	4b06      	ldr	r3, [pc, #24]	; (8002a04 <TIM_Base_SetConfig+0xc4>)
 80029ec:	4298      	cmp	r0, r3
 80029ee:	d003      	beq.n	80029f8 <TIM_Base_SetConfig+0xb8>
 80029f0:	f503 6380 	add.w	r3, r3, #1024	; 0x400
 80029f4:	4298      	cmp	r0, r3
 80029f6:	d101      	bne.n	80029fc <TIM_Base_SetConfig+0xbc>
 80029f8:	690b      	ldr	r3, [r1, #16]
 80029fa:	6303      	str	r3, [r0, #48]	; 0x30
 80029fc:	2301      	movs	r3, #1
 80029fe:	6143      	str	r3, [r0, #20]
 8002a00:	4770      	bx	lr
 8002a02:	bf00      	nop
 8002a04:	40010000 	.word	0x40010000
 8002a08:	40014000 	.word	0x40014000

08002a0c <HAL_TIM_Base_Init>:
 8002a0c:	b510      	push	{r4, lr}
 8002a0e:	4604      	mov	r4, r0
 8002a10:	b330      	cbz	r0, 8002a60 <HAL_TIM_Base_Init+0x54>
 8002a12:	f890 303d 	ldrb.w	r3, [r0, #61]	; 0x3d
 8002a16:	f003 02ff 	and.w	r2, r3, #255	; 0xff
 8002a1a:	b91b      	cbnz	r3, 8002a24 <HAL_TIM_Base_Init+0x18>
 8002a1c:	f880 203c 	strb.w	r2, [r0, #60]	; 0x3c
 8002a20:	f7fe fbbe 	bl	80011a0 <HAL_TIM_Base_MspInit>
 8002a24:	2302      	movs	r3, #2
 8002a26:	6820      	ldr	r0, [r4, #0]
 8002a28:	f884 303d 	strb.w	r3, [r4, #61]	; 0x3d
 8002a2c:	1d21      	adds	r1, r4, #4
 8002a2e:	f7ff ff87 	bl	8002940 <TIM_Base_SetConfig>
 8002a32:	2301      	movs	r3, #1
 8002a34:	f884 3046 	strb.w	r3, [r4, #70]	; 0x46
 8002a38:	2000      	movs	r0, #0
 8002a3a:	f884 303e 	strb.w	r3, [r4, #62]	; 0x3e
 8002a3e:	f884 303f 	strb.w	r3, [r4, #63]	; 0x3f
 8002a42:	f884 3040 	strb.w	r3, [r4, #64]	; 0x40
 8002a46:	f884 3041 	strb.w	r3, [r4, #65]	; 0x41
 8002a4a:	f884 3042 	strb.w	r3, [r4, #66]	; 0x42
 8002a4e:	f884 3043 	strb.w	r3, [r4, #67]	; 0x43
 8002a52:	f884 3044 	strb.w	r3, [r4, #68]	; 0x44
 8002a56:	f884 3045 	strb.w	r3, [r4, #69]	; 0x45
 8002a5a:	f884 303d 	strb.w	r3, [r4, #61]	; 0x3d
 8002a5e:	bd10      	pop	{r4, pc}
 8002a60:	2001      	movs	r0, #1
 8002a62:	e7fc      	b.n	8002a5e <HAL_TIM_Base_Init+0x52>

08002a64 <HAL_TIM_PWM_Init>:
 8002a64:	b510      	push	{r4, lr}
 8002a66:	4604      	mov	r4, r0
 8002a68:	b330      	cbz	r0, 8002ab8 <HAL_TIM_PWM_Init+0x54>
 8002a6a:	f890 303d 	ldrb.w	r3, [r0, #61]	; 0x3d
 8002a6e:	f003 02ff 	and.w	r2, r3, #255	; 0xff
 8002a72:	b91b      	cbnz	r3, 8002a7c <HAL_TIM_PWM_Init+0x18>
 8002a74:	f880 203c 	strb.w	r2, [r0, #60]	; 0x3c
 8002a78:	f7ff feba 	bl	80027f0 <HAL_TIM_PWM_MspInit>
 8002a7c:	2302      	movs	r3, #2
 8002a7e:	6820      	ldr	r0, [r4, #0]
 8002a80:	f884 303d 	strb.w	r3, [r4, #61]	; 0x3d
 8002a84:	1d21      	adds	r1, r4, #4
 8002a86:	f7ff ff5b 	bl	8002940 <TIM_Base_SetConfig>
 8002a8a:	2301      	movs	r3, #1
 8002a8c:	f884 3046 	strb.w	r3, [r4, #70]	; 0x46
 8002a90:	2000      	movs	r0, #0
 8002a92:	f884 303e 	strb.w	r3, [r4, #62]	; 0x3e
 8002a96:	f884 303f 	strb.w	r3, [r4, #63]	; 0x3f
 8002a9a:	f884 3040 	strb.w	r3, [r4, #64]	; 0x40
 8002a9e:	f884 3041 	strb.w	r3, [r4, #65]	; 0x41
 8002aa2:	f884 3042 	strb.w	r3, [r4, #66]	; 0x42
 8002aa6:	f884 3043 	strb.w	r3, [r4, #67]	; 0x43
 8002aaa:	f884 3044 	strb.w	r3, [r4, #68]	; 0x44
 8002aae:	f884 3045 	strb.w	r3, [r4, #69]	; 0x45
 8002ab2:	f884 303d 	strb.w	r3, [r4, #61]	; 0x3d
 8002ab6:	bd10      	pop	{r4, pc}
 8002ab8:	2001      	movs	r0, #1
 8002aba:	e7fc      	b.n	8002ab6 <HAL_TIM_PWM_Init+0x52>

08002abc <TIM_OC2_SetConfig>:
 8002abc:	6a03      	ldr	r3, [r0, #32]
 8002abe:	f023 0310 	bic.w	r3, r3, #16
 8002ac2:	6203      	str	r3, [r0, #32]
 8002ac4:	6a03      	ldr	r3, [r0, #32]
 8002ac6:	b570      	push	{r4, r5, r6, lr}
 8002ac8:	6844      	ldr	r4, [r0, #4]
 8002aca:	6982      	ldr	r2, [r0, #24]
 8002acc:	680d      	ldr	r5, [r1, #0]
 8002ace:	f422 42e6 	bic.w	r2, r2, #29440	; 0x7300
 8002ad2:	ea42 2205 	orr.w	r2, r2, r5, lsl #8
 8002ad6:	688d      	ldr	r5, [r1, #8]
 8002ad8:	f023 0320 	bic.w	r3, r3, #32
 8002adc:	ea43 1305 	orr.w	r3, r3, r5, lsl #4
 8002ae0:	4d10      	ldr	r5, [pc, #64]	; (8002b24 <TIM_OC2_SetConfig+0x68>)
 8002ae2:	42a8      	cmp	r0, r5
 8002ae4:	d003      	beq.n	8002aee <TIM_OC2_SetConfig+0x32>
 8002ae6:	f505 6580 	add.w	r5, r5, #1024	; 0x400
 8002aea:	42a8      	cmp	r0, r5
 8002aec:	d114      	bne.n	8002b18 <TIM_OC2_SetConfig+0x5c>
 8002aee:	68cd      	ldr	r5, [r1, #12]
 8002af0:	f023 0380 	bic.w	r3, r3, #128	; 0x80
 8002af4:	ea43 1305 	orr.w	r3, r3, r5, lsl #4
 8002af8:	4d0a      	ldr	r5, [pc, #40]	; (8002b24 <TIM_OC2_SetConfig+0x68>)
 8002afa:	42a8      	cmp	r0, r5
 8002afc:	f023 0340 	bic.w	r3, r3, #64	; 0x40
 8002b00:	d003      	beq.n	8002b0a <TIM_OC2_SetConfig+0x4e>
 8002b02:	f505 6580 	add.w	r5, r5, #1024	; 0x400
 8002b06:	42a8      	cmp	r0, r5
 8002b08:	d106      	bne.n	8002b18 <TIM_OC2_SetConfig+0x5c>
 8002b0a:	e9d1 5605 	ldrd	r5, r6, [r1, #20]
 8002b0e:	f424 6440 	bic.w	r4, r4, #3072	; 0xc00
 8002b12:	4335      	orrs	r5, r6
 8002b14:	ea44 0485 	orr.w	r4, r4, r5, lsl #2
 8002b18:	6044      	str	r4, [r0, #4]
 8002b1a:	6182      	str	r2, [r0, #24]
 8002b1c:	684a      	ldr	r2, [r1, #4]
 8002b1e:	6382      	str	r2, [r0, #56]	; 0x38
 8002b20:	6203      	str	r3, [r0, #32]
 8002b22:	bd70      	pop	{r4, r5, r6, pc}
 8002b24:	40010000 	.word	0x40010000

08002b28 <HAL_TIM_PWM_ConfigChannel>:
 8002b28:	b570      	push	{r4, r5, r6, lr}
 8002b2a:	f890 303c 	ldrb.w	r3, [r0, #60]	; 0x3c
 8002b2e:	2b01      	cmp	r3, #1
 8002b30:	4605      	mov	r5, r0
 8002b32:	4614      	mov	r4, r2
 8002b34:	d054      	beq.n	8002be0 <HAL_TIM_PWM_ConfigChannel+0xb8>
 8002b36:	2201      	movs	r2, #1
 8002b38:	2c08      	cmp	r4, #8
 8002b3a:	f880 203c 	strb.w	r2, [r0, #60]	; 0x3c
 8002b3e:	d03e      	beq.n	8002bbe <HAL_TIM_PWM_ConfigChannel+0x96>
 8002b40:	d807      	bhi.n	8002b52 <HAL_TIM_PWM_ConfigChannel+0x2a>
 8002b42:	b1cc      	cbz	r4, 8002b78 <HAL_TIM_PWM_ConfigChannel+0x50>
 8002b44:	2c04      	cmp	r4, #4
 8002b46:	d029      	beq.n	8002b9c <HAL_TIM_PWM_ConfigChannel+0x74>
 8002b48:	2300      	movs	r3, #0
 8002b4a:	f885 303c 	strb.w	r3, [r5, #60]	; 0x3c
 8002b4e:	4610      	mov	r0, r2
 8002b50:	bd70      	pop	{r4, r5, r6, pc}
 8002b52:	2c0c      	cmp	r4, #12
 8002b54:	d1f8      	bne.n	8002b48 <HAL_TIM_PWM_ConfigChannel+0x20>
 8002b56:	6800      	ldr	r0, [r0, #0]
 8002b58:	f7ff fe24 	bl	80027a4 <TIM_OC4_SetConfig>
 8002b5c:	682b      	ldr	r3, [r5, #0]
 8002b5e:	6909      	ldr	r1, [r1, #16]
 8002b60:	69da      	ldr	r2, [r3, #28]
 8002b62:	f442 6200 	orr.w	r2, r2, #2048	; 0x800
 8002b66:	61da      	str	r2, [r3, #28]
 8002b68:	69da      	ldr	r2, [r3, #28]
 8002b6a:	f422 6280 	bic.w	r2, r2, #1024	; 0x400
 8002b6e:	61da      	str	r2, [r3, #28]
 8002b70:	69da      	ldr	r2, [r3, #28]
 8002b72:	ea42 2201 	orr.w	r2, r2, r1, lsl #8
 8002b76:	e031      	b.n	8002bdc <HAL_TIM_PWM_ConfigChannel+0xb4>
 8002b78:	6800      	ldr	r0, [r0, #0]
 8002b7a:	f7ff fdab 	bl	80026d4 <TIM_OC1_SetConfig>
 8002b7e:	682b      	ldr	r3, [r5, #0]
 8002b80:	6909      	ldr	r1, [r1, #16]
 8002b82:	699a      	ldr	r2, [r3, #24]
 8002b84:	f042 0208 	orr.w	r2, r2, #8
 8002b88:	619a      	str	r2, [r3, #24]
 8002b8a:	699a      	ldr	r2, [r3, #24]
 8002b8c:	f022 0204 	bic.w	r2, r2, #4
 8002b90:	619a      	str	r2, [r3, #24]
 8002b92:	699a      	ldr	r2, [r3, #24]
 8002b94:	430a      	orrs	r2, r1
 8002b96:	619a      	str	r2, [r3, #24]
 8002b98:	2200      	movs	r2, #0
 8002b9a:	e7d5      	b.n	8002b48 <HAL_TIM_PWM_ConfigChannel+0x20>
 8002b9c:	6800      	ldr	r0, [r0, #0]
 8002b9e:	f7ff ff8d 	bl	8002abc <TIM_OC2_SetConfig>
 8002ba2:	682b      	ldr	r3, [r5, #0]
 8002ba4:	6909      	ldr	r1, [r1, #16]
 8002ba6:	699a      	ldr	r2, [r3, #24]
 8002ba8:	f442 6200 	orr.w	r2, r2, #2048	; 0x800
 8002bac:	619a      	str	r2, [r3, #24]
 8002bae:	699a      	ldr	r2, [r3, #24]
 8002bb0:	f422 6280 	bic.w	r2, r2, #1024	; 0x400
 8002bb4:	619a      	str	r2, [r3, #24]
 8002bb6:	699a      	ldr	r2, [r3, #24]
 8002bb8:	ea42 2201 	orr.w	r2, r2, r1, lsl #8
 8002bbc:	e7eb      	b.n	8002b96 <HAL_TIM_PWM_ConfigChannel+0x6e>
 8002bbe:	6800      	ldr	r0, [r0, #0]
 8002bc0:	f7ff fdba 	bl	8002738 <TIM_OC3_SetConfig>
 8002bc4:	682b      	ldr	r3, [r5, #0]
 8002bc6:	6909      	ldr	r1, [r1, #16]
 8002bc8:	69da      	ldr	r2, [r3, #28]
 8002bca:	f042 0208 	orr.w	r2, r2, #8
 8002bce:	61da      	str	r2, [r3, #28]
 8002bd0:	69da      	ldr	r2, [r3, #28]
 8002bd2:	f022 0204 	bic.w	r2, r2, #4
 8002bd6:	61da      	str	r2, [r3, #28]
 8002bd8:	69da      	ldr	r2, [r3, #28]
 8002bda:	430a      	orrs	r2, r1
 8002bdc:	61da      	str	r2, [r3, #28]
 8002bde:	e7db      	b.n	8002b98 <HAL_TIM_PWM_ConfigChannel+0x70>
 8002be0:	2202      	movs	r2, #2
 8002be2:	e7b4      	b.n	8002b4e <HAL_TIM_PWM_ConfigChannel+0x26>

08002be4 <TIM_ETR_SetConfig>:
 8002be4:	b510      	push	{r4, lr}
 8002be6:	6884      	ldr	r4, [r0, #8]
 8002be8:	4311      	orrs	r1, r2
 8002bea:	f424 447f 	bic.w	r4, r4, #65280	; 0xff00
 8002bee:	ea41 2303 	orr.w	r3, r1, r3, lsl #8
 8002bf2:	4323      	orrs	r3, r4
 8002bf4:	6083      	str	r3, [r0, #8]
 8002bf6:	bd10      	pop	{r4, pc}

08002bf8 <HAL_TIM_ConfigClockSource>:
 8002bf8:	b570      	push	{r4, r5, r6, lr}
 8002bfa:	f890 303c 	ldrb.w	r3, [r0, #60]	; 0x3c
 8002bfe:	2b01      	cmp	r3, #1
 8002c00:	4604      	mov	r4, r0
 8002c02:	f04f 0302 	mov.w	r3, #2
 8002c06:	f000 8091 	beq.w	8002d2c <HAL_TIM_ConfigClockSource+0x134>
 8002c0a:	2201      	movs	r2, #1
 8002c0c:	f880 303d 	strb.w	r3, [r0, #61]	; 0x3d
 8002c10:	f880 203c 	strb.w	r2, [r0, #60]	; 0x3c
 8002c14:	6800      	ldr	r0, [r0, #0]
 8002c16:	6883      	ldr	r3, [r0, #8]
 8002c18:	f423 437f 	bic.w	r3, r3, #65280	; 0xff00
 8002c1c:	f023 0377 	bic.w	r3, r3, #119	; 0x77
 8002c20:	6083      	str	r3, [r0, #8]
 8002c22:	680b      	ldr	r3, [r1, #0]
 8002c24:	2b60      	cmp	r3, #96	; 0x60
 8002c26:	d052      	beq.n	8002cce <HAL_TIM_ConfigClockSource+0xd6>
 8002c28:	d833      	bhi.n	8002c92 <HAL_TIM_ConfigClockSource+0x9a>
 8002c2a:	2b40      	cmp	r3, #64	; 0x40
 8002c2c:	d067      	beq.n	8002cfe <HAL_TIM_ConfigClockSource+0x106>
 8002c2e:	d816      	bhi.n	8002c5e <HAL_TIM_ConfigClockSource+0x66>
 8002c30:	2b20      	cmp	r3, #32
 8002c32:	d00d      	beq.n	8002c50 <HAL_TIM_ConfigClockSource+0x58>
 8002c34:	d80a      	bhi.n	8002c4c <HAL_TIM_ConfigClockSource+0x54>
 8002c36:	f033 0110 	bics.w	r1, r3, #16
 8002c3a:	d009      	beq.n	8002c50 <HAL_TIM_ConfigClockSource+0x58>
 8002c3c:	2301      	movs	r3, #1
 8002c3e:	f884 303d 	strb.w	r3, [r4, #61]	; 0x3d
 8002c42:	2300      	movs	r3, #0
 8002c44:	f884 303c 	strb.w	r3, [r4, #60]	; 0x3c
 8002c48:	4610      	mov	r0, r2
 8002c4a:	bd70      	pop	{r4, r5, r6, pc}
 8002c4c:	2b30      	cmp	r3, #48	; 0x30
 8002c4e:	d1f5      	bne.n	8002c3c <HAL_TIM_ConfigClockSource+0x44>
 8002c50:	6882      	ldr	r2, [r0, #8]
 8002c52:	f022 0270 	bic.w	r2, r2, #112	; 0x70
 8002c56:	4313      	orrs	r3, r2
 8002c58:	f043 0307 	orr.w	r3, r3, #7
 8002c5c:	e017      	b.n	8002c8e <HAL_TIM_ConfigClockSource+0x96>
 8002c5e:	2b50      	cmp	r3, #80	; 0x50
 8002c60:	d1ec      	bne.n	8002c3c <HAL_TIM_ConfigClockSource+0x44>
 8002c62:	684a      	ldr	r2, [r1, #4]
 8002c64:	68ce      	ldr	r6, [r1, #12]
 8002c66:	6a01      	ldr	r1, [r0, #32]
 8002c68:	6a05      	ldr	r5, [r0, #32]
 8002c6a:	f025 0501 	bic.w	r5, r5, #1
 8002c6e:	6205      	str	r5, [r0, #32]
 8002c70:	6983      	ldr	r3, [r0, #24]
 8002c72:	f021 010a 	bic.w	r1, r1, #10
 8002c76:	f023 03f0 	bic.w	r3, r3, #240	; 0xf0
 8002c7a:	ea43 1306 	orr.w	r3, r3, r6, lsl #4
 8002c7e:	430a      	orrs	r2, r1
 8002c80:	6183      	str	r3, [r0, #24]
 8002c82:	6202      	str	r2, [r0, #32]
 8002c84:	6883      	ldr	r3, [r0, #8]
 8002c86:	f023 0370 	bic.w	r3, r3, #112	; 0x70
 8002c8a:	f043 0357 	orr.w	r3, r3, #87	; 0x57
 8002c8e:	6083      	str	r3, [r0, #8]
 8002c90:	e011      	b.n	8002cb6 <HAL_TIM_ConfigClockSource+0xbe>
 8002c92:	f5b3 5f80 	cmp.w	r3, #4096	; 0x1000
 8002c96:	d00e      	beq.n	8002cb6 <HAL_TIM_ConfigClockSource+0xbe>
 8002c98:	f5b3 5f00 	cmp.w	r3, #8192	; 0x2000
 8002c9c:	d00d      	beq.n	8002cba <HAL_TIM_ConfigClockSource+0xc2>
 8002c9e:	2b70      	cmp	r3, #112	; 0x70
 8002ca0:	d1cc      	bne.n	8002c3c <HAL_TIM_ConfigClockSource+0x44>
 8002ca2:	68cb      	ldr	r3, [r1, #12]
 8002ca4:	e9d1 2101 	ldrd	r2, r1, [r1, #4]
 8002ca8:	f7ff ff9c 	bl	8002be4 <TIM_ETR_SetConfig>
 8002cac:	6822      	ldr	r2, [r4, #0]
 8002cae:	6893      	ldr	r3, [r2, #8]
 8002cb0:	f043 0377 	orr.w	r3, r3, #119	; 0x77
 8002cb4:	6093      	str	r3, [r2, #8]
 8002cb6:	2200      	movs	r2, #0
 8002cb8:	e7c0      	b.n	8002c3c <HAL_TIM_ConfigClockSource+0x44>
 8002cba:	68cb      	ldr	r3, [r1, #12]
 8002cbc:	e9d1 2101 	ldrd	r2, r1, [r1, #4]
 8002cc0:	f7ff ff90 	bl	8002be4 <TIM_ETR_SetConfig>
 8002cc4:	6822      	ldr	r2, [r4, #0]
 8002cc6:	6893      	ldr	r3, [r2, #8]
 8002cc8:	f443 4380 	orr.w	r3, r3, #16384	; 0x4000
 8002ccc:	e7f2      	b.n	8002cb4 <HAL_TIM_ConfigClockSource+0xbc>
 8002cce:	684d      	ldr	r5, [r1, #4]
 8002cd0:	68ce      	ldr	r6, [r1, #12]
 8002cd2:	6a01      	ldr	r1, [r0, #32]
 8002cd4:	f021 0110 	bic.w	r1, r1, #16
 8002cd8:	6201      	str	r1, [r0, #32]
 8002cda:	6982      	ldr	r2, [r0, #24]
 8002cdc:	6a03      	ldr	r3, [r0, #32]
 8002cde:	f422 4270 	bic.w	r2, r2, #61440	; 0xf000
 8002ce2:	f023 03a0 	bic.w	r3, r3, #160	; 0xa0
 8002ce6:	ea43 1305 	orr.w	r3, r3, r5, lsl #4
 8002cea:	ea42 3206 	orr.w	r2, r2, r6, lsl #12
 8002cee:	6182      	str	r2, [r0, #24]
 8002cf0:	6203      	str	r3, [r0, #32]
 8002cf2:	6883      	ldr	r3, [r0, #8]
 8002cf4:	f023 0370 	bic.w	r3, r3, #112	; 0x70
 8002cf8:	f043 0367 	orr.w	r3, r3, #103	; 0x67
 8002cfc:	e7c7      	b.n	8002c8e <HAL_TIM_ConfigClockSource+0x96>
 8002cfe:	684a      	ldr	r2, [r1, #4]
 8002d00:	68ce      	ldr	r6, [r1, #12]
 8002d02:	6a01      	ldr	r1, [r0, #32]
 8002d04:	6a05      	ldr	r5, [r0, #32]
 8002d06:	f025 0501 	bic.w	r5, r5, #1
 8002d0a:	6205      	str	r5, [r0, #32]
 8002d0c:	6983      	ldr	r3, [r0, #24]
 8002d0e:	f021 010a 	bic.w	r1, r1, #10
 8002d12:	f023 03f0 	bic.w	r3, r3, #240	; 0xf0
 8002d16:	ea43 1306 	orr.w	r3, r3, r6, lsl #4
 8002d1a:	430a      	orrs	r2, r1
 8002d1c:	6183      	str	r3, [r0, #24]
 8002d1e:	6202      	str	r2, [r0, #32]
 8002d20:	6883      	ldr	r3, [r0, #8]
 8002d22:	f023 0370 	bic.w	r3, r3, #112	; 0x70
 8002d26:	f043 0347 	orr.w	r3, r3, #71	; 0x47
 8002d2a:	e7b0      	b.n	8002c8e <HAL_TIM_ConfigClockSource+0x96>
 8002d2c:	461a      	mov	r2, r3
 8002d2e:	e78b      	b.n	8002c48 <HAL_TIM_ConfigClockSource+0x50>

08002d30 <HAL_TIMEx_MasterConfigSynchronization>:
 8002d30:	b530      	push	{r4, r5, lr}
 8002d32:	f890 303c 	ldrb.w	r3, [r0, #60]	; 0x3c
 8002d36:	2b01      	cmp	r3, #1
 8002d38:	f04f 0302 	mov.w	r3, #2
 8002d3c:	d032      	beq.n	8002da4 <HAL_TIMEx_MasterConfigSynchronization+0x74>
 8002d3e:	f880 303d 	strb.w	r3, [r0, #61]	; 0x3d
 8002d42:	6803      	ldr	r3, [r0, #0]
 8002d44:	680d      	ldr	r5, [r1, #0]
 8002d46:	685c      	ldr	r4, [r3, #4]
 8002d48:	689a      	ldr	r2, [r3, #8]
 8002d4a:	f024 0470 	bic.w	r4, r4, #112	; 0x70
 8002d4e:	432c      	orrs	r4, r5
 8002d50:	605c      	str	r4, [r3, #4]
 8002d52:	4c15      	ldr	r4, [pc, #84]	; (8002da8 <HAL_TIMEx_MasterConfigSynchronization+0x78>)
 8002d54:	42a3      	cmp	r3, r4
 8002d56:	d01a      	beq.n	8002d8e <HAL_TIMEx_MasterConfigSynchronization+0x5e>
 8002d58:	f1b3 4f80 	cmp.w	r3, #1073741824	; 0x40000000
 8002d5c:	d017      	beq.n	8002d8e <HAL_TIMEx_MasterConfigSynchronization+0x5e>
 8002d5e:	f5a4 447c 	sub.w	r4, r4, #64512	; 0xfc00
 8002d62:	42a3      	cmp	r3, r4
 8002d64:	d013      	beq.n	8002d8e <HAL_TIMEx_MasterConfigSynchronization+0x5e>
 8002d66:	f504 6480 	add.w	r4, r4, #1024	; 0x400
 8002d6a:	42a3      	cmp	r3, r4
 8002d6c:	d00f      	beq.n	8002d8e <HAL_TIMEx_MasterConfigSynchronization+0x5e>
 8002d6e:	f504 6480 	add.w	r4, r4, #1024	; 0x400
 8002d72:	42a3      	cmp	r3, r4
 8002d74:	d00b      	beq.n	8002d8e <HAL_TIMEx_MasterConfigSynchronization+0x5e>
 8002d76:	f504 4478 	add.w	r4, r4, #63488	; 0xf800
 8002d7a:	42a3      	cmp	r3, r4
 8002d7c:	d007      	beq.n	8002d8e <HAL_TIMEx_MasterConfigSynchronization+0x5e>
 8002d7e:	f504 5470 	add.w	r4, r4, #15360	; 0x3c00
 8002d82:	42a3      	cmp	r3, r4
 8002d84:	d003      	beq.n	8002d8e <HAL_TIMEx_MasterConfigSynchronization+0x5e>
 8002d86:	f5a4 3494 	sub.w	r4, r4, #75776	; 0x12800
 8002d8a:	42a3      	cmp	r3, r4
 8002d8c:	d104      	bne.n	8002d98 <HAL_TIMEx_MasterConfigSynchronization+0x68>
 8002d8e:	6849      	ldr	r1, [r1, #4]
 8002d90:	f022 0280 	bic.w	r2, r2, #128	; 0x80
 8002d94:	430a      	orrs	r2, r1
 8002d96:	609a      	str	r2, [r3, #8]
 8002d98:	2301      	movs	r3, #1
 8002d9a:	f880 303d 	strb.w	r3, [r0, #61]	; 0x3d
 8002d9e:	2300      	movs	r3, #0
 8002da0:	f880 303c 	strb.w	r3, [r0, #60]	; 0x3c
 8002da4:	4618      	mov	r0, r3
 8002da6:	bd30      	pop	{r4, r5, pc}
 8002da8:	40010000 	.word	0x40010000

08002dac <HAL_TIMEx_CommutCallback>:
 8002dac:	4770      	bx	lr

08002dae <HAL_TIMEx_BreakCallback>:
 8002dae:	4770      	bx	lr

08002db0 <UART_SetConfig>:
 8002db0:	6802      	ldr	r2, [r0, #0]
 8002db2:	68c1      	ldr	r1, [r0, #12]
 8002db4:	b538      	push	{r3, r4, r5, lr}
 8002db6:	6913      	ldr	r3, [r2, #16]
 8002db8:	f423 5340 	bic.w	r3, r3, #12288	; 0x3000
 8002dbc:	430b      	orrs	r3, r1
 8002dbe:	6113      	str	r3, [r2, #16]
 8002dc0:	4605      	mov	r5, r0
 8002dc2:	6883      	ldr	r3, [r0, #8]
 8002dc4:	6900      	ldr	r0, [r0, #16]
 8002dc6:	68d1      	ldr	r1, [r2, #12]
 8002dc8:	4303      	orrs	r3, r0
 8002dca:	6968      	ldr	r0, [r5, #20]
 8002dcc:	4303      	orrs	r3, r0
 8002dce:	69e8      	ldr	r0, [r5, #28]
 8002dd0:	f421 4116 	bic.w	r1, r1, #38400	; 0x9600
 8002dd4:	f021 010c 	bic.w	r1, r1, #12
 8002dd8:	4303      	orrs	r3, r0
 8002dda:	430b      	orrs	r3, r1
 8002ddc:	60d3      	str	r3, [r2, #12]
 8002dde:	6953      	ldr	r3, [r2, #20]
 8002de0:	69a9      	ldr	r1, [r5, #24]
 8002de2:	f423 7340 	bic.w	r3, r3, #768	; 0x300
 8002de6:	430b      	orrs	r3, r1
 8002de8:	6153      	str	r3, [r2, #20]
 8002dea:	4b1f      	ldr	r3, [pc, #124]	; (8002e68 <UART_SetConfig+0xb8>)
 8002dec:	429a      	cmp	r2, r3
 8002dee:	d003      	beq.n	8002df8 <UART_SetConfig+0x48>
 8002df0:	f503 6380 	add.w	r3, r3, #1024	; 0x400
 8002df4:	429a      	cmp	r2, r3
 8002df6:	d124      	bne.n	8002e42 <UART_SetConfig+0x92>
 8002df8:	f7ff f98e 	bl	8002118 <HAL_RCC_GetPCLK2Freq>
 8002dfc:	69ea      	ldr	r2, [r5, #28]
 8002dfe:	2319      	movs	r3, #25
 8002e00:	f5b2 4f00 	cmp.w	r2, #32768	; 0x8000
 8002e04:	fba0 0103 	umull	r0, r1, r0, r3
 8002e08:	e9d5 4300 	ldrd	r4, r3, [r5]
 8002e0c:	d11c      	bne.n	8002e48 <UART_SetConfig+0x98>
 8002e0e:	461a      	mov	r2, r3
 8002e10:	1892      	adds	r2, r2, r2
 8002e12:	f04f 0300 	mov.w	r3, #0
 8002e16:	415b      	adcs	r3, r3
 8002e18:	f7fd f9d6 	bl	80001c8 <__aeabi_uldivmod>
 8002e1c:	2164      	movs	r1, #100	; 0x64
 8002e1e:	fbb0 f5f1 	udiv	r5, r0, r1
 8002e22:	fb01 0315 	mls	r3, r1, r5, r0
 8002e26:	00db      	lsls	r3, r3, #3
 8002e28:	3332      	adds	r3, #50	; 0x32
 8002e2a:	fbb3 f3f1 	udiv	r3, r3, r1
 8002e2e:	f003 0207 	and.w	r2, r3, #7
 8002e32:	005b      	lsls	r3, r3, #1
 8002e34:	eb02 1205 	add.w	r2, r2, r5, lsl #4
 8002e38:	f403 73f8 	and.w	r3, r3, #496	; 0x1f0
 8002e3c:	4413      	add	r3, r2
 8002e3e:	60a3      	str	r3, [r4, #8]
 8002e40:	bd38      	pop	{r3, r4, r5, pc}
 8002e42:	f7ff f959 	bl	80020f8 <HAL_RCC_GetPCLK1Freq>
 8002e46:	e7d9      	b.n	8002dfc <UART_SetConfig+0x4c>
 8002e48:	009a      	lsls	r2, r3, #2
 8002e4a:	0f9b      	lsrs	r3, r3, #30
 8002e4c:	f7fd f9bc 	bl	80001c8 <__aeabi_uldivmod>
 8002e50:	2264      	movs	r2, #100	; 0x64
 8002e52:	fbb0 f1f2 	udiv	r1, r0, r2
 8002e56:	fb02 0311 	mls	r3, r2, r1, r0
 8002e5a:	011b      	lsls	r3, r3, #4
 8002e5c:	3332      	adds	r3, #50	; 0x32
 8002e5e:	fbb3 f3f2 	udiv	r3, r3, r2
 8002e62:	eb03 1301 	add.w	r3, r3, r1, lsl #4
 8002e66:	e7ea      	b.n	8002e3e <UART_SetConfig+0x8e>
 8002e68:	40011000 	.word	0x40011000

08002e6c <HAL_UART_Init>:
 8002e6c:	b510      	push	{r4, lr}
 8002e6e:	4604      	mov	r4, r0
 8002e70:	b340      	cbz	r0, 8002ec4 <HAL_UART_Init+0x58>
 8002e72:	f890 303d 	ldrb.w	r3, [r0, #61]	; 0x3d
 8002e76:	f003 02ff 	and.w	r2, r3, #255	; 0xff
 8002e7a:	b91b      	cbnz	r3, 8002e84 <HAL_UART_Init+0x18>
 8002e7c:	f880 203c 	strb.w	r2, [r0, #60]	; 0x3c
 8002e80:	f7fe fa66 	bl	8001350 <HAL_UART_MspInit>
 8002e84:	6822      	ldr	r2, [r4, #0]
 8002e86:	2324      	movs	r3, #36	; 0x24
 8002e88:	f884 303d 	strb.w	r3, [r4, #61]	; 0x3d
 8002e8c:	68d3      	ldr	r3, [r2, #12]
 8002e8e:	f423 5300 	bic.w	r3, r3, #8192	; 0x2000
 8002e92:	60d3      	str	r3, [r2, #12]
 8002e94:	4620      	mov	r0, r4
 8002e96:	f7ff ff8b 	bl	8002db0 <UART_SetConfig>
 8002e9a:	6823      	ldr	r3, [r4, #0]
 8002e9c:	691a      	ldr	r2, [r3, #16]
 8002e9e:	f422 4290 	bic.w	r2, r2, #18432	; 0x4800
 8002ea2:	611a      	str	r2, [r3, #16]
 8002ea4:	695a      	ldr	r2, [r3, #20]
 8002ea6:	f022 022a 	bic.w	r2, r2, #42	; 0x2a
 8002eaa:	615a      	str	r2, [r3, #20]
 8002eac:	68da      	ldr	r2, [r3, #12]
 8002eae:	f442 5200 	orr.w	r2, r2, #8192	; 0x2000
 8002eb2:	60da      	str	r2, [r3, #12]
 8002eb4:	2000      	movs	r0, #0
 8002eb6:	2320      	movs	r3, #32
 8002eb8:	6420      	str	r0, [r4, #64]	; 0x40
 8002eba:	f884 303d 	strb.w	r3, [r4, #61]	; 0x3d
 8002ebe:	f884 303e 	strb.w	r3, [r4, #62]	; 0x3e
 8002ec2:	bd10      	pop	{r4, pc}
 8002ec4:	2001      	movs	r0, #1
 8002ec6:	e7fc      	b.n	8002ec2 <HAL_UART_Init+0x56>

08002ec8 <__libc_init_array>:
 8002ec8:	b570      	push	{r4, r5, r6, lr}
 8002eca:	4d0d      	ldr	r5, [pc, #52]	; (8002f00 <__libc_init_array+0x38>)
 8002ecc:	4c0d      	ldr	r4, [pc, #52]	; (8002f04 <__libc_init_array+0x3c>)
 8002ece:	1b64      	subs	r4, r4, r5
 8002ed0:	10a4      	asrs	r4, r4, #2
 8002ed2:	2600      	movs	r6, #0
 8002ed4:	42a6      	cmp	r6, r4
 8002ed6:	d109      	bne.n	8002eec <__libc_init_array+0x24>
 8002ed8:	4d0b      	ldr	r5, [pc, #44]	; (8002f08 <__libc_init_array+0x40>)
 8002eda:	4c0c      	ldr	r4, [pc, #48]	; (8002f0c <__libc_init_array+0x44>)
 8002edc:	f000 f820 	bl	8002f20 <_init>
 8002ee0:	1b64      	subs	r4, r4, r5
 8002ee2:	10a4      	asrs	r4, r4, #2
 8002ee4:	2600      	movs	r6, #0
 8002ee6:	42a6      	cmp	r6, r4
 8002ee8:	d105      	bne.n	8002ef6 <__libc_init_array+0x2e>
 8002eea:	bd70      	pop	{r4, r5, r6, pc}
 8002eec:	f855 3b04 	ldr.w	r3, [r5], #4
 8002ef0:	4798      	blx	r3
 8002ef2:	3601      	adds	r6, #1
 8002ef4:	e7ee      	b.n	8002ed4 <__libc_init_array+0xc>
 8002ef6:	f855 3b04 	ldr.w	r3, [r5], #4
 8002efa:	4798      	blx	r3
 8002efc:	3601      	adds	r6, #1
 8002efe:	e7f2      	b.n	8002ee6 <__libc_init_array+0x1e>
 8002f00:	08003dd4 	.word	0x08003dd4
 8002f04:	08003dd4 	.word	0x08003dd4
 8002f08:	08003dd4 	.word	0x08003dd4
 8002f0c:	08003dd8 	.word	0x08003dd8

08002f10 <memset>:
 8002f10:	4402      	add	r2, r0
 8002f12:	4603      	mov	r3, r0
 8002f14:	4293      	cmp	r3, r2
 8002f16:	d100      	bne.n	8002f1a <memset+0xa>
 8002f18:	4770      	bx	lr
 8002f1a:	f803 1b01 	strb.w	r1, [r3], #1
 8002f1e:	e7f9      	b.n	8002f14 <memset+0x4>

08002f20 <_init>:
 8002f20:	b5f8      	push	{r3, r4, r5, r6, r7, lr}
 8002f22:	bf00      	nop
 8002f24:	bcf8      	pop	{r3, r4, r5, r6, r7}
 8002f26:	bc08      	pop	{r3}
 8002f28:	469e      	mov	lr, r3
 8002f2a:	4770      	bx	lr

08002f2c <_fini>:
 8002f2c:	b5f8      	push	{r3, r4, r5, r6, r7, lr}
 8002f2e:	bf00      	nop
 8002f30:	bcf8      	pop	{r3, r4, r5, r6, r7}
 8002f32:	bc08      	pop	{r3}
 8002f34:	469e      	mov	lr, r3
 8002f36:	4770      	bx	lr
